Archive member included to satisfy reference by file (symbol)

/usr/lib/gcc/arm-none-eabi/10.3.1/../../../arm-none-eabi/lib/thumb/v7e-m+dp/hard/libstdc++.a(del_ops.o)
                              build/main.o (operator delete(void*, unsigned int))
/usr/lib/gcc/arm-none-eabi/10.3.1/../../../arm-none-eabi/lib/thumb/v7e-m+dp/hard/libstdc++.a(eh_arm.o)
                              build/main.o (__cxa_end_cleanup)
/usr/lib/gcc/arm-none-eabi/10.3.1/../../../arm-none-eabi/lib/thumb/v7e-m+dp/hard/libstdc++.a(eh_exception.o)
                              /usr/lib/gcc/arm-none-eabi/10.3.1/../../../arm-none-eabi/lib/thumb/v7e-m+dp/hard/libstdc++.a(eh_arm.o) (typeinfo for __cxxabiv1::__forced_unwind)
/usr/lib/gcc/arm-none-eabi/10.3.1/../../../arm-none-eabi/lib/thumb/v7e-m+dp/hard/libstdc++.a(eh_globals.o)
                              /usr/lib/gcc/arm-none-eabi/10.3.1/../../../arm-none-eabi/lib/thumb/v7e-m+dp/hard/libstdc++.a(eh_arm.o) (__cxa_get_globals)
/usr/lib/gcc/arm-none-eabi/10.3.1/../../../arm-none-eabi/lib/thumb/v7e-m+dp/hard/libstdc++.a(eh_personality.o)
                              build/main.o (__gxx_personality_v0)
/usr/lib/gcc/arm-none-eabi/10.3.1/../../../arm-none-eabi/lib/thumb/v7e-m+dp/hard/libstdc++.a(eh_terminate.o)
                              /usr/lib/gcc/arm-none-eabi/10.3.1/../../../arm-none-eabi/lib/thumb/v7e-m+dp/hard/libstdc++.a(eh_arm.o) (std::terminate())
/usr/lib/gcc/arm-none-eabi/10.3.1/../../../arm-none-eabi/lib/thumb/v7e-m+dp/hard/libstdc++.a(eh_unex_handler.o)
                              /usr/lib/gcc/arm-none-eabi/10.3.1/../../../arm-none-eabi/lib/thumb/v7e-m+dp/hard/libstdc++.a(eh_terminate.o) (__cxxabiv1::__unexpected_handler)
/usr/lib/gcc/arm-none-eabi/10.3.1/../../../arm-none-eabi/lib/thumb/v7e-m+dp/hard/libstdc++.a(new_op.o)
                              build/main.o (operator new(unsigned int))
/usr/lib/gcc/arm-none-eabi/10.3.1/../../../arm-none-eabi/lib/thumb/v7e-m+dp/hard/libstdc++.a(pure.o)
                              /usr/lib/gcc/arm-none-eabi/10.3.1/../../../arm-none-eabi/lib/thumb/v7e-m+dp/hard/libstdc++.a(eh_exception.o) (__cxa_pure_virtual)
/usr/lib/gcc/arm-none-eabi/10.3.1/../../../arm-none-eabi/lib/thumb/v7e-m+dp/hard/libstdc++.a(si_class_type_info.o)
                              /usr/lib/gcc/arm-none-eabi/10.3.1/../../../arm-none-eabi/lib/thumb/v7e-m+dp/hard/libstdc++.a(eh_exception.o) (vtable for __cxxabiv1::__si_class_type_info)
/usr/lib/gcc/arm-none-eabi/10.3.1/../../../arm-none-eabi/lib/thumb/v7e-m+dp/hard/libstdc++.a(tinfo.o)
                              /usr/lib/gcc/arm-none-eabi/10.3.1/../../../arm-none-eabi/lib/thumb/v7e-m+dp/hard/libstdc++.a(si_class_type_info.o) (std::type_info::__is_pointer_p() const)
/usr/lib/gcc/arm-none-eabi/10.3.1/../../../arm-none-eabi/lib/thumb/v7e-m+dp/hard/libstdc++.a(bad_alloc.o)
                              /usr/lib/gcc/arm-none-eabi/10.3.1/../../../arm-none-eabi/lib/thumb/v7e-m+dp/hard/libstdc++.a(new_op.o) (std::bad_alloc::~bad_alloc())
/usr/lib/gcc/arm-none-eabi/10.3.1/../../../arm-none-eabi/lib/thumb/v7e-m+dp/hard/libstdc++.a(class_type_info.o)
                              /usr/lib/gcc/arm-none-eabi/10.3.1/../../../arm-none-eabi/lib/thumb/v7e-m+dp/hard/libstdc++.a(si_class_type_info.o) (__cxxabiv1::__class_type_info::__do_upcast(__cxxabiv1::__class_type_info const*, void**) const)
/usr/lib/gcc/arm-none-eabi/10.3.1/../../../arm-none-eabi/lib/thumb/v7e-m+dp/hard/libstdc++.a(del_op.o)
                              /usr/lib/gcc/arm-none-eabi/10.3.1/../../../arm-none-eabi/lib/thumb/v7e-m+dp/hard/libstdc++.a(del_ops.o) (operator delete(void*))
/usr/lib/gcc/arm-none-eabi/10.3.1/../../../arm-none-eabi/lib/thumb/v7e-m+dp/hard/libstdc++.a(eh_alloc.o)
                              /usr/lib/gcc/arm-none-eabi/10.3.1/../../../arm-none-eabi/lib/thumb/v7e-m+dp/hard/libstdc++.a(new_op.o) (__cxa_allocate_exception)
/usr/lib/gcc/arm-none-eabi/10.3.1/../../../arm-none-eabi/lib/thumb/v7e-m+dp/hard/libstdc++.a(eh_call.o)
                              /usr/lib/gcc/arm-none-eabi/10.3.1/../../../arm-none-eabi/lib/thumb/v7e-m+dp/hard/libstdc++.a(eh_personality.o) (__cxa_call_terminate)
/usr/lib/gcc/arm-none-eabi/10.3.1/../../../arm-none-eabi/lib/thumb/v7e-m+dp/hard/libstdc++.a(eh_catch.o)
                              /usr/lib/gcc/arm-none-eabi/10.3.1/../../../arm-none-eabi/lib/thumb/v7e-m+dp/hard/libstdc++.a(eh_personality.o) (__cxa_begin_catch)
/usr/lib/gcc/arm-none-eabi/10.3.1/../../../arm-none-eabi/lib/thumb/v7e-m+dp/hard/libstdc++.a(eh_term_handler.o)
                              /usr/lib/gcc/arm-none-eabi/10.3.1/../../../arm-none-eabi/lib/thumb/v7e-m+dp/hard/libstdc++.a(eh_terminate.o) (__cxxabiv1::__terminate_handler)
/usr/lib/gcc/arm-none-eabi/10.3.1/../../../arm-none-eabi/lib/thumb/v7e-m+dp/hard/libstdc++.a(eh_throw.o)
                              /usr/lib/gcc/arm-none-eabi/10.3.1/../../../arm-none-eabi/lib/thumb/v7e-m+dp/hard/libstdc++.a(new_op.o) (__cxa_throw)
/usr/lib/gcc/arm-none-eabi/10.3.1/../../../arm-none-eabi/lib/thumb/v7e-m+dp/hard/libstdc++.a(new_handler.o)
                              /usr/lib/gcc/arm-none-eabi/10.3.1/../../../arm-none-eabi/lib/thumb/v7e-m+dp/hard/libstdc++.a(new_op.o) (std::get_new_handler())
/usr/lib/gcc/arm-none-eabi/10.3.1/../../../arm-none-eabi/lib/thumb/v7e-m+dp/hard/libc.a(lib_a-abort.o)
                              /usr/lib/gcc/arm-none-eabi/10.3.1/../../../arm-none-eabi/lib/thumb/v7e-m+dp/hard/libstdc++.a(eh_personality.o) (abort)
/usr/lib/gcc/arm-none-eabi/10.3.1/../../../arm-none-eabi/lib/thumb/v7e-m+dp/hard/libc.a(lib_a-atexit.o)
                              /usr/lib/gcc/arm-none-eabi/10.3.1/../../../arm-none-eabi/lib/thumb/v7e-m+dp/hard/crt0.o (atexit)
/usr/lib/gcc/arm-none-eabi/10.3.1/../../../arm-none-eabi/lib/thumb/v7e-m+dp/hard/libc.a(lib_a-exit.o)
                              /usr/lib/gcc/arm-none-eabi/10.3.1/../../../arm-none-eabi/lib/thumb/v7e-m+dp/hard/crt0.o (exit)
/usr/lib/gcc/arm-none-eabi/10.3.1/../../../arm-none-eabi/lib/thumb/v7e-m+dp/hard/libc.a(lib_a-fini.o)
                              /usr/lib/gcc/arm-none-eabi/10.3.1/../../../arm-none-eabi/lib/thumb/v7e-m+dp/hard/crt0.o (__libc_fini_array)
/usr/lib/gcc/arm-none-eabi/10.3.1/../../../arm-none-eabi/lib/thumb/v7e-m+dp/hard/libc.a(lib_a-impure.o)
                              /usr/lib/gcc/arm-none-eabi/10.3.1/../../../arm-none-eabi/lib/thumb/v7e-m+dp/hard/libc.a(lib_a-exit.o) (_global_impure_ptr)
/usr/lib/gcc/arm-none-eabi/10.3.1/../../../arm-none-eabi/lib/thumb/v7e-m+dp/hard/libc.a(lib_a-init.o)
                              /usr/lib/gcc/arm-none-eabi/10.3.1/../../../arm-none-eabi/lib/thumb/v7e-m+dp/hard/crt0.o (__libc_init_array)
/usr/lib/gcc/arm-none-eabi/10.3.1/../../../arm-none-eabi/lib/thumb/v7e-m+dp/hard/libc.a(lib_a-malloc.o)
                              /usr/lib/gcc/arm-none-eabi/10.3.1/../../../arm-none-eabi/lib/thumb/v7e-m+dp/hard/libstdc++.a(new_op.o) (malloc)
/usr/lib/gcc/arm-none-eabi/10.3.1/../../../arm-none-eabi/lib/thumb/v7e-m+dp/hard/libc.a(lib_a-mallocr.o)
                              /usr/lib/gcc/arm-none-eabi/10.3.1/../../../arm-none-eabi/lib/thumb/v7e-m+dp/hard/libc.a(lib_a-malloc.o) (_malloc_r)
/usr/lib/gcc/arm-none-eabi/10.3.1/../../../arm-none-eabi/lib/thumb/v7e-m+dp/hard/libc.a(lib_a-memcpy.o)
                              build/queue.o (memcpy)
/usr/lib/gcc/arm-none-eabi/10.3.1/../../../arm-none-eabi/lib/thumb/v7e-m+dp/hard/libc.a(lib_a-memset.o)
                              /usr/lib/gcc/arm-none-eabi/10.3.1/../../../arm-none-eabi/lib/thumb/v7e-m+dp/hard/crt0.o (memset)
/usr/lib/gcc/arm-none-eabi/10.3.1/../../../arm-none-eabi/lib/thumb/v7e-m+dp/hard/libc.a(lib_a-mlock.o)
                              /usr/lib/gcc/arm-none-eabi/10.3.1/../../../arm-none-eabi/lib/thumb/v7e-m+dp/hard/libc.a(lib_a-mallocr.o) (__malloc_lock)
/usr/lib/gcc/arm-none-eabi/10.3.1/../../../arm-none-eabi/lib/thumb/v7e-m+dp/hard/libc.a(lib_a-sbrkr.o)
                              /usr/lib/gcc/arm-none-eabi/10.3.1/../../../arm-none-eabi/lib/thumb/v7e-m+dp/hard/libc.a(lib_a-mallocr.o) (_sbrk_r)
/usr/lib/gcc/arm-none-eabi/10.3.1/../../../arm-none-eabi/lib/thumb/v7e-m+dp/hard/libc.a(lib_a-signal.o)
                              /usr/lib/gcc/arm-none-eabi/10.3.1/../../../arm-none-eabi/lib/thumb/v7e-m+dp/hard/libc.a(lib_a-abort.o) (raise)
/usr/lib/gcc/arm-none-eabi/10.3.1/../../../arm-none-eabi/lib/thumb/v7e-m+dp/hard/libc.a(lib_a-signalr.o)
                              /usr/lib/gcc/arm-none-eabi/10.3.1/../../../arm-none-eabi/lib/thumb/v7e-m+dp/hard/libc.a(lib_a-signal.o) (_kill_r)
/usr/lib/gcc/arm-none-eabi/10.3.1/../../../arm-none-eabi/lib/thumb/v7e-m+dp/hard/libc.a(lib_a-strcmp.o)
                              /usr/lib/gcc/arm-none-eabi/10.3.1/../../../arm-none-eabi/lib/thumb/v7e-m+dp/hard/libstdc++.a(tinfo.o) (strcmp)
/usr/lib/gcc/arm-none-eabi/10.3.1/../../../arm-none-eabi/lib/thumb/v7e-m+dp/hard/libc.a(lib_a-__atexit.o)
                              /usr/lib/gcc/arm-none-eabi/10.3.1/../../../arm-none-eabi/lib/thumb/v7e-m+dp/hard/libc.a(lib_a-atexit.o) (__register_exitproc)
/usr/lib/gcc/arm-none-eabi/10.3.1/../../../arm-none-eabi/lib/thumb/v7e-m+dp/hard/libc.a(lib_a-__call_atexit.o)
                              /usr/lib/gcc/arm-none-eabi/10.3.1/../../../arm-none-eabi/lib/thumb/v7e-m+dp/hard/libc.a(lib_a-exit.o) (__call_exitprocs)
/usr/lib/gcc/arm-none-eabi/10.3.1/../../../arm-none-eabi/lib/thumb/v7e-m+dp/hard/libc.a(lib_a-freer.o)
                              /usr/lib/gcc/arm-none-eabi/10.3.1/../../../arm-none-eabi/lib/thumb/v7e-m+dp/hard/libc.a(lib_a-malloc.o) (_free_r)
/usr/lib/gcc/arm-none-eabi/10.3.1/../../../arm-none-eabi/lib/thumb/v7e-m+dp/hard/libc.a(lib_a-reent.o)
                              /usr/lib/gcc/arm-none-eabi/10.3.1/../../../arm-none-eabi/lib/thumb/v7e-m+dp/hard/libc.a(lib_a-sbrkr.o) (errno)
/usr/lib/gcc/arm-none-eabi/10.3.1/thumb/v7e-m+dp/hard/libgcc.a(unwind-arm.o)
                              build/main.o (__aeabi_unwind_cpp_pr0)
/usr/lib/gcc/arm-none-eabi/10.3.1/thumb/v7e-m+dp/hard/libgcc.a(libunwind.o)
                              /usr/lib/gcc/arm-none-eabi/10.3.1/thumb/v7e-m+dp/hard/libgcc.a(unwind-arm.o) (restore_core_regs)
/usr/lib/gcc/arm-none-eabi/10.3.1/thumb/v7e-m+dp/hard/libgcc.a(pr-support.o)
                              /usr/lib/gcc/arm-none-eabi/10.3.1/thumb/v7e-m+dp/hard/libgcc.a(unwind-arm.o) (__gnu_unwind_execute)
/usr/lib/gcc/arm-none-eabi/10.3.1/../../../arm-none-eabi/lib/thumb/v7e-m+dp/hard/libnosys.a(getpid.o)
                              /usr/lib/gcc/arm-none-eabi/10.3.1/../../../arm-none-eabi/lib/thumb/v7e-m+dp/hard/libc.a(lib_a-signalr.o) (_getpid)
/usr/lib/gcc/arm-none-eabi/10.3.1/../../../arm-none-eabi/lib/thumb/v7e-m+dp/hard/libnosys.a(kill.o)
                              /usr/lib/gcc/arm-none-eabi/10.3.1/../../../arm-none-eabi/lib/thumb/v7e-m+dp/hard/libc.a(lib_a-signalr.o) (_kill)
/usr/lib/gcc/arm-none-eabi/10.3.1/../../../arm-none-eabi/lib/thumb/v7e-m+dp/hard/libnosys.a(sbrk.o)
                              /usr/lib/gcc/arm-none-eabi/10.3.1/../../../arm-none-eabi/lib/thumb/v7e-m+dp/hard/libc.a(lib_a-sbrkr.o) (_sbrk)
/usr/lib/gcc/arm-none-eabi/10.3.1/../../../arm-none-eabi/lib/thumb/v7e-m+dp/hard/libnosys.a(_exit.o)
                              /usr/lib/gcc/arm-none-eabi/10.3.1/../../../arm-none-eabi/lib/thumb/v7e-m+dp/hard/libc.a(lib_a-abort.o) (_exit)

Discarded input sections

 .text          0x0000000000000000        0x0 /usr/lib/gcc/arm-none-eabi/10.3.1/thumb/v7e-m+dp/hard/crti.o
 .data          0x0000000000000000        0x0 /usr/lib/gcc/arm-none-eabi/10.3.1/thumb/v7e-m+dp/hard/crti.o
 .bss           0x0000000000000000        0x0 /usr/lib/gcc/arm-none-eabi/10.3.1/thumb/v7e-m+dp/hard/crti.o
 .data          0x0000000000000000        0x4 /usr/lib/gcc/arm-none-eabi/10.3.1/thumb/v7e-m+dp/hard/crtbegin.o
 .rodata        0x0000000000000000       0x24 /usr/lib/gcc/arm-none-eabi/10.3.1/thumb/v7e-m+dp/hard/crtbegin.o
 .text          0x0000000000000000       0x70 /usr/lib/gcc/arm-none-eabi/10.3.1/../../../arm-none-eabi/lib/thumb/v7e-m+dp/hard/crt0.o
 .data          0x0000000000000000        0x0 /usr/lib/gcc/arm-none-eabi/10.3.1/../../../arm-none-eabi/lib/thumb/v7e-m+dp/hard/crt0.o
 .bss           0x0000000000000000        0x0 /usr/lib/gcc/arm-none-eabi/10.3.1/../../../arm-none-eabi/lib/thumb/v7e-m+dp/hard/crt0.o
 .ARM.extab     0x0000000000000000        0x0 /usr/lib/gcc/arm-none-eabi/10.3.1/../../../arm-none-eabi/lib/thumb/v7e-m+dp/hard/crt0.o
 .ARM.exidx     0x0000000000000000       0x10 /usr/lib/gcc/arm-none-eabi/10.3.1/../../../arm-none-eabi/lib/thumb/v7e-m+dp/hard/crt0.o
 .debug_line    0x0000000000000000       0x87 /usr/lib/gcc/arm-none-eabi/10.3.1/../../../arm-none-eabi/lib/thumb/v7e-m+dp/hard/crt0.o
 .debug_info    0x0000000000000000       0x26 /usr/lib/gcc/arm-none-eabi/10.3.1/../../../arm-none-eabi/lib/thumb/v7e-m+dp/hard/crt0.o
 .debug_abbrev  0x0000000000000000       0x14 /usr/lib/gcc/arm-none-eabi/10.3.1/../../../arm-none-eabi/lib/thumb/v7e-m+dp/hard/crt0.o
 .debug_aranges
                0x0000000000000000       0x20 /usr/lib/gcc/arm-none-eabi/10.3.1/../../../arm-none-eabi/lib/thumb/v7e-m+dp/hard/crt0.o
 .debug_str     0x0000000000000000       0x98 /usr/lib/gcc/arm-none-eabi/10.3.1/../../../arm-none-eabi/lib/thumb/v7e-m+dp/hard/crt0.o
 .ARM.attributes
                0x0000000000000000       0x1c /usr/lib/gcc/arm-none-eabi/10.3.1/../../../arm-none-eabi/lib/thumb/v7e-m+dp/hard/crt0.o
 .text          0x0000000000000000        0x0 build/freertos.o
 .data          0x0000000000000000        0x0 build/freertos.o
 .bss           0x0000000000000000        0x0 build/freertos.o
 .debug_info    0x0000000000000000       0x80 build/freertos.o
 .debug_abbrev  0x0000000000000000       0x26 build/freertos.o
 .debug_aranges
                0x0000000000000000       0x18 build/freertos.o
 .debug_line    0x0000000000000000       0x1d build/freertos.o
 .debug_str     0x0000000000000000      0x17d build/freertos.o
 .comment       0x0000000000000000       0x34 build/freertos.o
 .ARM.attributes
                0x0000000000000000       0x37 build/freertos.o
 .text          0x0000000000000000        0x0 build/stm32h7xx_it.o
 .data          0x0000000000000000        0x0 build/stm32h7xx_it.o
 .bss           0x0000000000000000        0x0 build/stm32h7xx_it.o
 .text          0x0000000000000000        0x0 build/stm32h7xx_hal_msp.o
 .data          0x0000000000000000        0x0 build/stm32h7xx_hal_msp.o
 .bss           0x0000000000000000        0x0 build/stm32h7xx_hal_msp.o
 .text          0x0000000000000000        0x0 build/stm32h7xx_hal_timebase_tim.o
 .data          0x0000000000000000        0x0 build/stm32h7xx_hal_timebase_tim.o
 .bss           0x0000000000000000        0x0 build/stm32h7xx_hal_timebase_tim.o
 .text.HAL_SuspendTick
                0x0000000000000000       0x14 build/stm32h7xx_hal_timebase_tim.o
 .text.HAL_ResumeTick
                0x0000000000000000       0x14 build/stm32h7xx_hal_timebase_tim.o
 .text          0x0000000000000000        0x0 build/stm32h7xx_hal_cortex.o
 .data          0x0000000000000000        0x0 build/stm32h7xx_hal_cortex.o
 .bss           0x0000000000000000        0x0 build/stm32h7xx_hal_cortex.o
 .text.HAL_NVIC_DisableIRQ
                0x0000000000000000       0x24 build/stm32h7xx_hal_cortex.o
 .text.HAL_NVIC_SystemReset
                0x0000000000000000       0x24 build/stm32h7xx_hal_cortex.o
 .text.HAL_SYSTICK_Config
                0x0000000000000000       0x28 build/stm32h7xx_hal_cortex.o
 .text.HAL_MPU_Disable
                0x0000000000000000       0x1c build/stm32h7xx_hal_cortex.o
 .text.HAL_MPU_Enable
                0x0000000000000000       0x20 build/stm32h7xx_hal_cortex.o
 .text.HAL_MPU_ConfigRegion
                0x0000000000000000       0x60 build/stm32h7xx_hal_cortex.o
 .text.HAL_NVIC_GetPriorityGrouping
                0x0000000000000000       0x10 build/stm32h7xx_hal_cortex.o
 .text.HAL_NVIC_GetPriority
                0x0000000000000000       0x5c build/stm32h7xx_hal_cortex.o
 .text.HAL_NVIC_SetPendingIRQ
                0x0000000000000000       0x1c build/stm32h7xx_hal_cortex.o
 .text.HAL_NVIC_GetPendingIRQ
                0x0000000000000000       0x24 build/stm32h7xx_hal_cortex.o
 .text.HAL_NVIC_ClearPendingIRQ
                0x0000000000000000       0x1c build/stm32h7xx_hal_cortex.o
 .text.HAL_NVIC_GetActive
                0x0000000000000000       0x24 build/stm32h7xx_hal_cortex.o
 .text.HAL_SYSTICK_CLKSourceConfig
                0x0000000000000000       0x20 build/stm32h7xx_hal_cortex.o
 .text.HAL_SYSTICK_Callback
                0x0000000000000000        0x2 build/stm32h7xx_hal_cortex.o
 .text.HAL_SYSTICK_IRQHandler
                0x0000000000000000        0x8 build/stm32h7xx_hal_cortex.o
 .text.HAL_GetCurrentCPUID
                0x0000000000000000        0x4 build/stm32h7xx_hal_cortex.o
 .text          0x0000000000000000        0x0 build/stm32h7xx_hal_rcc.o
 .data          0x0000000000000000        0x0 build/stm32h7xx_hal_rcc.o
 .bss           0x0000000000000000        0x0 build/stm32h7xx_hal_rcc.o
 .text.HAL_RCC_DeInit
                0x0000000000000000      0x1cc build/stm32h7xx_hal_rcc.o
 .text.HAL_RCC_MCOConfig
                0x0000000000000000       0xa4 build/stm32h7xx_hal_rcc.o
 .text.HAL_RCC_EnableCSS
                0x0000000000000000       0x10 build/stm32h7xx_hal_rcc.o
 .text.HAL_RCC_DisableCSS
                0x0000000000000000       0x10 build/stm32h7xx_hal_rcc.o
 .text.HAL_RCC_GetPCLK1Freq
                0x0000000000000000       0x24 build/stm32h7xx_hal_rcc.o
 .text.HAL_RCC_GetOscConfig
                0x0000000000000000      0x11c build/stm32h7xx_hal_rcc.o
 .text.HAL_RCC_CSSCallback
                0x0000000000000000        0x2 build/stm32h7xx_hal_rcc.o
 .text.HAL_RCC_NMI_IRQHandler
                0x0000000000000000       0x20 build/stm32h7xx_hal_rcc.o
 .text          0x0000000000000000        0x0 build/stm32h7xx_hal_rcc_ex.o
 .data          0x0000000000000000        0x0 build/stm32h7xx_hal_rcc_ex.o
 .bss           0x0000000000000000        0x0 build/stm32h7xx_hal_rcc_ex.o
 .text.RCCEx_PLL2_Config
                0x0000000000000000      0x10c build/stm32h7xx_hal_rcc_ex.o
 .text.RCCEx_PLL3_Config
                0x0000000000000000      0x10c build/stm32h7xx_hal_rcc_ex.o
 .text.HAL_RCCEx_PeriphCLKConfig
                0x0000000000000000      0xa0c build/stm32h7xx_hal_rcc_ex.o
 .text.HAL_RCCEx_GetPeriphCLKConfig
                0x0000000000000000      0x1d0 build/stm32h7xx_hal_rcc_ex.o
 .text.HAL_RCCEx_GetD1PCLK1Freq
                0x0000000000000000       0x24 build/stm32h7xx_hal_rcc_ex.o
 .text.HAL_RCCEx_GetD3PCLK1Freq
                0x0000000000000000       0x24 build/stm32h7xx_hal_rcc_ex.o
 .text.HAL_RCCEx_GetPLL2ClockFreq
                0x0000000000000000      0x1f8 build/stm32h7xx_hal_rcc_ex.o
 .text.HAL_RCCEx_GetPLL3ClockFreq
                0x0000000000000000      0x1f8 build/stm32h7xx_hal_rcc_ex.o
 .text.HAL_RCCEx_GetPLL1ClockFreq
                0x0000000000000000      0x1f8 build/stm32h7xx_hal_rcc_ex.o
 .text.HAL_RCCEx_GetPeriphCLKFreq
                0x0000000000000000      0x600 build/stm32h7xx_hal_rcc_ex.o
 .text.HAL_RCCEx_GetD1SysClockFreq
                0x0000000000000000       0x44 build/stm32h7xx_hal_rcc_ex.o
 .text.HAL_RCCEx_EnableLSECSS
                0x0000000000000000       0x10 build/stm32h7xx_hal_rcc_ex.o
 .text.HAL_RCCEx_DisableLSECSS
                0x0000000000000000       0x18 build/stm32h7xx_hal_rcc_ex.o
 .text.HAL_RCCEx_EnableLSECSS_IT
                0x0000000000000000       0x30 build/stm32h7xx_hal_rcc_ex.o
 .text.HAL_RCCEx_WakeUpStopCLKConfig
                0x0000000000000000       0x14 build/stm32h7xx_hal_rcc_ex.o
 .text.HAL_RCCEx_KerWakeUpStopCLKConfig
                0x0000000000000000       0x14 build/stm32h7xx_hal_rcc_ex.o
 .text.HAL_RCCEx_WWDGxSysResetConfig
                0x0000000000000000       0x14 build/stm32h7xx_hal_rcc_ex.o
 .text.HAL_RCCEx_CRSConfig
                0x0000000000000000       0x74 build/stm32h7xx_hal_rcc_ex.o
 .text.HAL_RCCEx_CRSSoftwareSynchronizationGenerate
                0x0000000000000000       0x10 build/stm32h7xx_hal_rcc_ex.o
 .text.HAL_RCCEx_CRSGetSynchronizationInfo
                0x0000000000000000       0x24 build/stm32h7xx_hal_rcc_ex.o
 .text.HAL_RCCEx_CRSWaitSynchronization
                0x0000000000000000       0xac build/stm32h7xx_hal_rcc_ex.o
 .text.HAL_RCCEx_CRS_SyncOkCallback
                0x0000000000000000        0x2 build/stm32h7xx_hal_rcc_ex.o
 .text.HAL_RCCEx_CRS_SyncWarnCallback
                0x0000000000000000        0x2 build/stm32h7xx_hal_rcc_ex.o
 .text.HAL_RCCEx_CRS_ExpectedSyncCallback
                0x0000000000000000        0x2 build/stm32h7xx_hal_rcc_ex.o
 .text.HAL_RCCEx_CRS_ErrorCallback
                0x0000000000000000        0x2 build/stm32h7xx_hal_rcc_ex.o
 .text.HAL_RCCEx_CRS_IRQHandler
                0x0000000000000000       0x88 build/stm32h7xx_hal_rcc_ex.o
 .text.HAL_RCCEx_LSECSS_Callback
                0x0000000000000000        0x2 build/stm32h7xx_hal_rcc_ex.o
 .text.HAL_RCCEx_LSECSS_IRQHandler
                0x0000000000000000       0x20 build/stm32h7xx_hal_rcc_ex.o
 .debug_info    0x0000000000000000     0x1c42 build/stm32h7xx_hal_rcc_ex.o
 .debug_abbrev  0x0000000000000000      0x286 build/stm32h7xx_hal_rcc_ex.o
 .debug_loc     0x0000000000000000     0x1d25 build/stm32h7xx_hal_rcc_ex.o
 .debug_aranges
                0x0000000000000000       0xf8 build/stm32h7xx_hal_rcc_ex.o
 .debug_ranges  0x0000000000000000       0xe8 build/stm32h7xx_hal_rcc_ex.o
 .debug_line    0x0000000000000000     0x1d7f build/stm32h7xx_hal_rcc_ex.o
 .debug_str     0x0000000000000000      0xebb build/stm32h7xx_hal_rcc_ex.o
 .comment       0x0000000000000000       0x34 build/stm32h7xx_hal_rcc_ex.o
 .debug_frame   0x0000000000000000      0x26c build/stm32h7xx_hal_rcc_ex.o
 .ARM.attributes
                0x0000000000000000       0x32 build/stm32h7xx_hal_rcc_ex.o
 .text          0x0000000000000000        0x0 build/stm32h7xx_hal_flash.o
 .data          0x0000000000000000        0x0 build/stm32h7xx_hal_flash.o
 .bss           0x0000000000000000        0x0 build/stm32h7xx_hal_flash.o
 .text.HAL_FLASH_EndOfOperationCallback
                0x0000000000000000        0x2 build/stm32h7xx_hal_flash.o
 .text.HAL_FLASH_OperationErrorCallback
                0x0000000000000000        0x2 build/stm32h7xx_hal_flash.o
 .text.HAL_FLASH_IRQHandler
                0x0000000000000000      0x100 build/stm32h7xx_hal_flash.o
 .text.HAL_FLASH_Unlock
                0x0000000000000000       0x34 build/stm32h7xx_hal_flash.o
 .text.HAL_FLASH_Lock
                0x0000000000000000       0x20 build/stm32h7xx_hal_flash.o
 .text.HAL_FLASH_OB_Unlock
                0x0000000000000000       0x34 build/stm32h7xx_hal_flash.o
 .text.HAL_FLASH_OB_Lock
                0x0000000000000000       0x20 build/stm32h7xx_hal_flash.o
 .text.HAL_FLASH_GetError
                0x0000000000000000        0xc build/stm32h7xx_hal_flash.o
 .text.FLASH_WaitForLastOperation
                0x0000000000000000       0x84 build/stm32h7xx_hal_flash.o
 .text.HAL_FLASH_Program
                0x0000000000000000       0x88 build/stm32h7xx_hal_flash.o
 .text.HAL_FLASH_Program_IT
                0x0000000000000000       0x88 build/stm32h7xx_hal_flash.o
 .text.FLASH_OB_WaitForLastOperation
                0x0000000000000000       0x60 build/stm32h7xx_hal_flash.o
 .text.FLASH_CRC_WaitForLastOperation
                0x0000000000000000       0x74 build/stm32h7xx_hal_flash.o
 .text.HAL_FLASH_OB_Launch
                0x0000000000000000       0x2c build/stm32h7xx_hal_flash.o
 .bss.pFlash    0x0000000000000000       0x1c build/stm32h7xx_hal_flash.o
 .debug_info    0x0000000000000000      0xa04 build/stm32h7xx_hal_flash.o
 .debug_abbrev  0x0000000000000000      0x286 build/stm32h7xx_hal_flash.o
 .debug_loc     0x0000000000000000      0x819 build/stm32h7xx_hal_flash.o
 .debug_aranges
                0x0000000000000000       0x88 build/stm32h7xx_hal_flash.o
 .debug_ranges  0x0000000000000000       0x78 build/stm32h7xx_hal_flash.o
 .debug_line    0x0000000000000000      0x825 build/stm32h7xx_hal_flash.o
 .debug_str     0x0000000000000000      0x647 build/stm32h7xx_hal_flash.o
 .comment       0x0000000000000000       0x34 build/stm32h7xx_hal_flash.o
 .debug_frame   0x0000000000000000      0x148 build/stm32h7xx_hal_flash.o
 .ARM.attributes
                0x0000000000000000       0x32 build/stm32h7xx_hal_flash.o
 .text          0x0000000000000000        0x0 build/stm32h7xx_hal_flash_ex.o
 .data          0x0000000000000000        0x0 build/stm32h7xx_hal_flash_ex.o
 .bss           0x0000000000000000        0x0 build/stm32h7xx_hal_flash_ex.o
 .text.FLASH_MassErase
                0x0000000000000000       0x24 build/stm32h7xx_hal_flash_ex.o
 .text.FLASH_OB_EnableWRP
                0x0000000000000000       0x18 build/stm32h7xx_hal_flash_ex.o
 .text.FLASH_OB_DisableWRP
                0x0000000000000000       0x18 build/stm32h7xx_hal_flash_ex.o
 .text.FLASH_OB_GetWRP
                0x0000000000000000       0x24 build/stm32h7xx_hal_flash_ex.o
 .text.FLASH_OB_RDPConfig
                0x0000000000000000       0x14 build/stm32h7xx_hal_flash_ex.o
 .text.FLASH_OB_GetRDP
                0x0000000000000000       0x20 build/stm32h7xx_hal_flash_ex.o
 .text.FLASH_OB_UserConfig
                0x0000000000000000       0xc4 build/stm32h7xx_hal_flash_ex.o
 .text.FLASH_OB_GetUser
                0x0000000000000000       0x14 build/stm32h7xx_hal_flash_ex.o
 .text.FLASH_OB_PCROPConfig
                0x0000000000000000       0x24 build/stm32h7xx_hal_flash_ex.o
 .text.FLASH_OB_GetPCROP
                0x0000000000000000       0x40 build/stm32h7xx_hal_flash_ex.o
 .text.FLASH_OB_BOR_LevelConfig
                0x0000000000000000       0x14 build/stm32h7xx_hal_flash_ex.o
 .text.FLASH_OB_GetBOR
                0x0000000000000000       0x10 build/stm32h7xx_hal_flash_ex.o
 .text.FLASH_OB_BootAddConfig
                0x0000000000000000       0x34 build/stm32h7xx_hal_flash_ex.o
 .text.FLASH_OB_GetBootAdd
                0x0000000000000000       0x18 build/stm32h7xx_hal_flash_ex.o
 .text.FLASH_OB_SecureAreaConfig
                0x0000000000000000       0x28 build/stm32h7xx_hal_flash_ex.o
 .text.FLASH_OB_GetSecureArea
                0x0000000000000000       0x40 build/stm32h7xx_hal_flash_ex.o
 .text.FLASH_CRC_AddSector
                0x0000000000000000       0x20 build/stm32h7xx_hal_flash_ex.o
 .text.FLASH_CRC_SelectAddress
                0x0000000000000000       0x14 build/stm32h7xx_hal_flash_ex.o
 .text.FLASH_OB_SharedRAM_Config
                0x0000000000000000       0x14 build/stm32h7xx_hal_flash_ex.o
 .text.FLASH_OB_SharedRAM_GetConfig
                0x0000000000000000       0x10 build/stm32h7xx_hal_flash_ex.o
 .text.FLASH_OB_CPUFreq_BoostConfig
                0x0000000000000000       0x14 build/stm32h7xx_hal_flash_ex.o
 .text.FLASH_OB_CPUFreq_GetBoost
                0x0000000000000000       0x10 build/stm32h7xx_hal_flash_ex.o
 .text.HAL_FLASHEx_OBProgram
                0x0000000000000000       0xec build/stm32h7xx_hal_flash_ex.o
 .text.HAL_FLASHEx_OBGetConfig
                0x0000000000000000       0x88 build/stm32h7xx_hal_flash_ex.o
 .text.HAL_FLASHEx_Unlock_Bank1
                0x0000000000000000       0x34 build/stm32h7xx_hal_flash_ex.o
 .text.HAL_FLASHEx_Lock_Bank1
                0x0000000000000000       0x14 build/stm32h7xx_hal_flash_ex.o
 .text.HAL_FLASHEx_ComputeCRC
                0x0000000000000000       0xb4 build/stm32h7xx_hal_flash_ex.o
 .text.FLASH_Erase_Sector
                0x0000000000000000       0x24 build/stm32h7xx_hal_flash_ex.o
 .text.HAL_FLASHEx_Erase
                0x0000000000000000       0xc8 build/stm32h7xx_hal_flash_ex.o
 .text.HAL_FLASHEx_Erase_IT
                0x0000000000000000       0x98 build/stm32h7xx_hal_flash_ex.o
 .debug_info    0x0000000000000000     0x1054 build/stm32h7xx_hal_flash_ex.o
 .debug_abbrev  0x0000000000000000      0x28a build/stm32h7xx_hal_flash_ex.o
 .debug_loc     0x0000000000000000      0xa4e build/stm32h7xx_hal_flash_ex.o
 .debug_aranges
                0x0000000000000000      0x108 build/stm32h7xx_hal_flash_ex.o
 .debug_ranges  0x0000000000000000       0xf8 build/stm32h7xx_hal_flash_ex.o
 .debug_line    0x0000000000000000      0xb87 build/stm32h7xx_hal_flash_ex.o
 .debug_str     0x0000000000000000      0x968 build/stm32h7xx_hal_flash_ex.o
 .comment       0x0000000000000000       0x34 build/stm32h7xx_hal_flash_ex.o
 .debug_frame   0x0000000000000000      0x254 build/stm32h7xx_hal_flash_ex.o
 .ARM.attributes
                0x0000000000000000       0x32 build/stm32h7xx_hal_flash_ex.o
 .text          0x0000000000000000        0x0 build/stm32h7xx_hal_gpio.o
 .data          0x0000000000000000        0x0 build/stm32h7xx_hal_gpio.o
 .bss           0x0000000000000000        0x0 build/stm32h7xx_hal_gpio.o
 .text.HAL_GPIO_DeInit
                0x0000000000000000      0x144 build/stm32h7xx_hal_gpio.o
 .text.HAL_GPIO_ReadPin
                0x0000000000000000        0xe build/stm32h7xx_hal_gpio.o
 .text.HAL_GPIO_LockPin
                0x0000000000000000       0x2e build/stm32h7xx_hal_gpio.o
 .text.HAL_GPIO_EXTI_Callback
                0x0000000000000000        0x2 build/stm32h7xx_hal_gpio.o
 .text.HAL_GPIO_EXTI_IRQHandler
                0x0000000000000000       0x1e build/stm32h7xx_hal_gpio.o
 .text          0x0000000000000000        0x0 build/stm32h7xx_hal_hsem.o
 .data          0x0000000000000000        0x0 build/stm32h7xx_hal_hsem.o
 .bss           0x0000000000000000        0x0 build/stm32h7xx_hal_hsem.o
 .text.HAL_HSEM_Take
                0x0000000000000000       0x24 build/stm32h7xx_hal_hsem.o
 .text.HAL_HSEM_FastTake
                0x0000000000000000       0x20 build/stm32h7xx_hal_hsem.o
 .text.HAL_HSEM_IsSemTaken
                0x0000000000000000       0x18 build/stm32h7xx_hal_hsem.o
 .text.HAL_HSEM_Release
                0x0000000000000000       0x10 build/stm32h7xx_hal_hsem.o
 .text.HAL_HSEM_ReleaseAll
                0x0000000000000000       0x14 build/stm32h7xx_hal_hsem.o
 .text.HAL_HSEM_SetClearKey
                0x0000000000000000       0x18 build/stm32h7xx_hal_hsem.o
 .text.HAL_HSEM_GetClearKey
                0x0000000000000000       0x10 build/stm32h7xx_hal_hsem.o
 .text.HAL_HSEM_ActivateNotification
                0x0000000000000000       0x10 build/stm32h7xx_hal_hsem.o
 .text.HAL_HSEM_DeactivateNotification
                0x0000000000000000       0x10 build/stm32h7xx_hal_hsem.o
 .text.HAL_HSEM_FreeCallback
                0x0000000000000000        0x2 build/stm32h7xx_hal_hsem.o
 .text.HAL_HSEM_IRQHandler
                0x0000000000000000       0x1c build/stm32h7xx_hal_hsem.o
 .debug_info    0x0000000000000000      0x41d build/stm32h7xx_hal_hsem.o
 .debug_abbrev  0x0000000000000000      0x1e3 build/stm32h7xx_hal_hsem.o
 .debug_loc     0x0000000000000000      0x137 build/stm32h7xx_hal_hsem.o
 .debug_aranges
                0x0000000000000000       0x70 build/stm32h7xx_hal_hsem.o
 .debug_ranges  0x0000000000000000       0x60 build/stm32h7xx_hal_hsem.o
 .debug_line    0x0000000000000000      0x285 build/stm32h7xx_hal_hsem.o
 .debug_str     0x0000000000000000      0x341 build/stm32h7xx_hal_hsem.o
 .comment       0x0000000000000000       0x34 build/stm32h7xx_hal_hsem.o
 .debug_frame   0x0000000000000000       0xc8 build/stm32h7xx_hal_hsem.o
 .ARM.attributes
                0x0000000000000000       0x32 build/stm32h7xx_hal_hsem.o
 .text          0x0000000000000000        0x0 build/stm32h7xx_hal_dma.o
 .data          0x0000000000000000        0x0 build/stm32h7xx_hal_dma.o
 .bss           0x0000000000000000        0x0 build/stm32h7xx_hal_dma.o
 .text.DMA_SetConfig
                0x0000000000000000      0x1b4 build/stm32h7xx_hal_dma.o
 .text.DMA_CalcBaseAndBitshift
                0x0000000000000000       0xb4 build/stm32h7xx_hal_dma.o
 .text.DMA_CheckFifoParam
                0x0000000000000000       0x92 build/stm32h7xx_hal_dma.o
 .text.DMA_CalcDMAMUXChannelBaseAndMask
                0x0000000000000000       0xb0 build/stm32h7xx_hal_dma.o
 .text.DMA_CalcDMAMUXRequestGenBaseAndMask
                0x0000000000000000       0x7c build/stm32h7xx_hal_dma.o
 .text.HAL_DMA_Init
                0x0000000000000000      0x394 build/stm32h7xx_hal_dma.o
 .text.HAL_DMA_DeInit
                0x0000000000000000      0x1d4 build/stm32h7xx_hal_dma.o
 .text.HAL_DMA_Start
                0x0000000000000000      0x148 build/stm32h7xx_hal_dma.o
 .text.HAL_DMA_Start_IT
                0x0000000000000000      0x298 build/stm32h7xx_hal_dma.o
 .text.HAL_DMA_Abort
                0x0000000000000000      0x340 build/stm32h7xx_hal_dma.o
 .text.HAL_DMA_Abort_IT
                0x0000000000000000      0x270 build/stm32h7xx_hal_dma.o
 .text.HAL_DMA_PollForTransfer
                0x0000000000000000      0x450 build/stm32h7xx_hal_dma.o
 .text.HAL_DMA_IRQHandler
                0x0000000000000000      0x738 build/stm32h7xx_hal_dma.o
 .text.HAL_DMA_RegisterCallback
                0x0000000000000000       0x60 build/stm32h7xx_hal_dma.o
 .text.HAL_DMA_UnRegisterCallback
                0x0000000000000000       0x76 build/stm32h7xx_hal_dma.o
 .text.HAL_DMA_GetState
                0x0000000000000000        0x6 build/stm32h7xx_hal_dma.o
 .text.HAL_DMA_GetError
                0x0000000000000000        0x4 build/stm32h7xx_hal_dma.o
 .rodata.flagBitshiftOffset.0
                0x0000000000000000        0x8 build/stm32h7xx_hal_dma.o
 .debug_info    0x0000000000000000      0xfc4 build/stm32h7xx_hal_dma.o
 .debug_abbrev  0x0000000000000000      0x2ef build/stm32h7xx_hal_dma.o
 .debug_loc     0x0000000000000000     0x10aa build/stm32h7xx_hal_dma.o
 .debug_aranges
                0x0000000000000000       0xa0 build/stm32h7xx_hal_dma.o
 .debug_ranges  0x0000000000000000       0xa8 build/stm32h7xx_hal_dma.o
 .debug_line    0x0000000000000000     0x23a5 build/stm32h7xx_hal_dma.o
 .debug_str     0x0000000000000000      0x922 build/stm32h7xx_hal_dma.o
 .comment       0x0000000000000000       0x34 build/stm32h7xx_hal_dma.o
 .debug_frame   0x0000000000000000      0x1fc build/stm32h7xx_hal_dma.o
 .ARM.attributes
                0x0000000000000000       0x32 build/stm32h7xx_hal_dma.o
 .text          0x0000000000000000        0x0 build/stm32h7xx_hal_dma_ex.o
 .data          0x0000000000000000        0x0 build/stm32h7xx_hal_dma_ex.o
 .bss           0x0000000000000000        0x0 build/stm32h7xx_hal_dma_ex.o
 .text.DMA_MultiBufferSetConfig
                0x0000000000000000       0xa8 build/stm32h7xx_hal_dma_ex.o
 .text.HAL_DMAEx_MultiBufferStart
                0x0000000000000000      0x218 build/stm32h7xx_hal_dma_ex.o
 .text.HAL_DMAEx_MultiBufferStart_IT
                0x0000000000000000      0x398 build/stm32h7xx_hal_dma_ex.o
 .text.HAL_DMAEx_ChangeMemory
                0x0000000000000000       0x88 build/stm32h7xx_hal_dma_ex.o
 .text.HAL_DMAEx_ConfigMuxSync
                0x0000000000000000       0x70 build/stm32h7xx_hal_dma_ex.o
 .text.HAL_DMAEx_ConfigMuxRequestGenerator
                0x0000000000000000       0x5a build/stm32h7xx_hal_dma_ex.o
 .text.HAL_DMAEx_EnableMuxRequestGenerator
                0x0000000000000000       0x1e build/stm32h7xx_hal_dma_ex.o
 .text.HAL_DMAEx_DisableMuxRequestGenerator
                0x0000000000000000       0x1e build/stm32h7xx_hal_dma_ex.o
 .text.HAL_DMAEx_MUX_IRQHandler
                0x0000000000000000       0x5a build/stm32h7xx_hal_dma_ex.o
 .debug_info    0x0000000000000000      0x9f6 build/stm32h7xx_hal_dma_ex.o
 .debug_abbrev  0x0000000000000000      0x227 build/stm32h7xx_hal_dma_ex.o
 .debug_loc     0x0000000000000000      0x91f build/stm32h7xx_hal_dma_ex.o
 .debug_aranges
                0x0000000000000000       0x60 build/stm32h7xx_hal_dma_ex.o
 .debug_ranges  0x0000000000000000       0x50 build/stm32h7xx_hal_dma_ex.o
 .debug_line    0x0000000000000000      0xb56 build/stm32h7xx_hal_dma_ex.o
 .debug_str     0x0000000000000000      0x7c9 build/stm32h7xx_hal_dma_ex.o
 .comment       0x0000000000000000       0x34 build/stm32h7xx_hal_dma_ex.o
 .debug_frame   0x0000000000000000      0x104 build/stm32h7xx_hal_dma_ex.o
 .ARM.attributes
                0x0000000000000000       0x32 build/stm32h7xx_hal_dma_ex.o
 .text          0x0000000000000000        0x0 build/stm32h7xx_hal_mdma.o
 .data          0x0000000000000000        0x0 build/stm32h7xx_hal_mdma.o
 .bss           0x0000000000000000        0x0 build/stm32h7xx_hal_mdma.o
 .text.MDMA_SetConfig
                0x0000000000000000       0x88 build/stm32h7xx_hal_mdma.o
 .text.MDMA_Init
                0x0000000000000000       0xb8 build/stm32h7xx_hal_mdma.o
 .text.HAL_MDMA_Init
                0x0000000000000000       0x60 build/stm32h7xx_hal_mdma.o
 .text.HAL_MDMA_DeInit
                0x0000000000000000       0x56 build/stm32h7xx_hal_mdma.o
 .text.HAL_MDMA_ConfigPostRequestMask
                0x0000000000000000       0x66 build/stm32h7xx_hal_mdma.o
 .text.HAL_MDMA_RegisterCallback
                0x0000000000000000       0x64 build/stm32h7xx_hal_mdma.o
 .text.HAL_MDMA_UnRegisterCallback
                0x0000000000000000       0x76 build/stm32h7xx_hal_mdma.o
 .text.HAL_MDMA_LinkedList_CreateNode
                0x0000000000000000      0x10e build/stm32h7xx_hal_mdma.o
 .text.HAL_MDMA_LinkedList_AddNode
                0x0000000000000000       0xe8 build/stm32h7xx_hal_mdma.o
 .text.HAL_MDMA_LinkedList_RemoveNode
                0x0000000000000000       0xd2 build/stm32h7xx_hal_mdma.o
 .text.HAL_MDMA_LinkedList_EnableCircularMode
                0x0000000000000000       0x58 build/stm32h7xx_hal_mdma.o
 .text.HAL_MDMA_LinkedList_DisableCircularMode
                0x0000000000000000       0x52 build/stm32h7xx_hal_mdma.o
 .text.HAL_MDMA_Start
                0x0000000000000000       0x78 build/stm32h7xx_hal_mdma.o
 .text.HAL_MDMA_Start_IT
                0x0000000000000000       0xac build/stm32h7xx_hal_mdma.o
 .text.HAL_MDMA_Abort
                0x0000000000000000       0x7c build/stm32h7xx_hal_mdma.o
 .text.HAL_MDMA_Abort_IT
                0x0000000000000000       0x2c build/stm32h7xx_hal_mdma.o
 .text.HAL_MDMA_PollForTransfer
                0x0000000000000000      0x122 build/stm32h7xx_hal_mdma.o
 .text.HAL_MDMA_GenerateSWRequest
                0x0000000000000000       0x40 build/stm32h7xx_hal_mdma.o
 .text.HAL_MDMA_IRQHandler
                0x0000000000000000      0x1b4 build/stm32h7xx_hal_mdma.o
 .text.HAL_MDMA_GetState
                0x0000000000000000        0x6 build/stm32h7xx_hal_mdma.o
 .text.HAL_MDMA_GetError
                0x0000000000000000        0x4 build/stm32h7xx_hal_mdma.o
 .debug_info    0x0000000000000000      0xf8e build/stm32h7xx_hal_mdma.o
 .debug_abbrev  0x0000000000000000      0x275 build/stm32h7xx_hal_mdma.o
 .debug_loc     0x0000000000000000     0x142f build/stm32h7xx_hal_mdma.o
 .debug_aranges
                0x0000000000000000       0xc0 build/stm32h7xx_hal_mdma.o
 .debug_ranges  0x0000000000000000       0xb0 build/stm32h7xx_hal_mdma.o
 .debug_line    0x0000000000000000     0x13f3 build/stm32h7xx_hal_mdma.o
 .debug_str     0x0000000000000000      0x9f6 build/stm32h7xx_hal_mdma.o
 .comment       0x0000000000000000       0x34 build/stm32h7xx_hal_mdma.o
 .debug_frame   0x0000000000000000      0x264 build/stm32h7xx_hal_mdma.o
 .ARM.attributes
                0x0000000000000000       0x32 build/stm32h7xx_hal_mdma.o
 .text          0x0000000000000000        0x0 build/stm32h7xx_hal_pwr.o
 .data          0x0000000000000000        0x0 build/stm32h7xx_hal_pwr.o
 .bss           0x0000000000000000        0x0 build/stm32h7xx_hal_pwr.o
 .text.HAL_PWR_DeInit
                0x0000000000000000        0x2 build/stm32h7xx_hal_pwr.o
 .text.HAL_PWR_EnableBkUpAccess
                0x0000000000000000       0x10 build/stm32h7xx_hal_pwr.o
 .text.HAL_PWR_DisableBkUpAccess
                0x0000000000000000       0x10 build/stm32h7xx_hal_pwr.o
 .text.HAL_PWR_ConfigPVD
                0x0000000000000000       0xa0 build/stm32h7xx_hal_pwr.o
 .text.HAL_PWR_EnablePVD
                0x0000000000000000       0x10 build/stm32h7xx_hal_pwr.o
 .text.HAL_PWR_DisablePVD
                0x0000000000000000       0x10 build/stm32h7xx_hal_pwr.o
 .text.HAL_PWR_EnableWakeUpPin
                0x0000000000000000       0x18 build/stm32h7xx_hal_pwr.o
 .text.HAL_PWR_DisableWakeUpPin
                0x0000000000000000       0x14 build/stm32h7xx_hal_pwr.o
 .text.HAL_PWR_EnterSLEEPMode
                0x0000000000000000       0x1c build/stm32h7xx_hal_pwr.o
 .text.HAL_PWR_EnterSTOPMode
                0x0000000000000000       0x4c build/stm32h7xx_hal_pwr.o
 .text.HAL_PWR_EnterSTANDBYMode
                0x0000000000000000       0x30 build/stm32h7xx_hal_pwr.o
 .text.HAL_PWR_EnableSleepOnExit
                0x0000000000000000       0x10 build/stm32h7xx_hal_pwr.o
 .text.HAL_PWR_DisableSleepOnExit
                0x0000000000000000       0x10 build/stm32h7xx_hal_pwr.o
 .text.HAL_PWR_EnableSEVOnPend
                0x0000000000000000       0x10 build/stm32h7xx_hal_pwr.o
 .text.HAL_PWR_DisableSEVOnPend
                0x0000000000000000       0x10 build/stm32h7xx_hal_pwr.o
 .text.HAL_PWR_PVDCallback
                0x0000000000000000        0x2 build/stm32h7xx_hal_pwr.o
 .text.HAL_PWR_PVD_IRQHandler
                0x0000000000000000       0x28 build/stm32h7xx_hal_pwr.o
 .debug_info    0x0000000000000000      0xa84 build/stm32h7xx_hal_pwr.o
 .debug_abbrev  0x0000000000000000      0x196 build/stm32h7xx_hal_pwr.o
 .debug_loc     0x0000000000000000       0x77 build/stm32h7xx_hal_pwr.o
 .debug_aranges
                0x0000000000000000       0xa0 build/stm32h7xx_hal_pwr.o
 .debug_ranges  0x0000000000000000       0x90 build/stm32h7xx_hal_pwr.o
 .debug_line    0x0000000000000000      0x3a1 build/stm32h7xx_hal_pwr.o
 .debug_str     0x0000000000000000      0x5de build/stm32h7xx_hal_pwr.o
 .comment       0x0000000000000000       0x34 build/stm32h7xx_hal_pwr.o
 .debug_frame   0x0000000000000000      0x128 build/stm32h7xx_hal_pwr.o
 .ARM.attributes
                0x0000000000000000       0x32 build/stm32h7xx_hal_pwr.o
 .text          0x0000000000000000        0x0 build/stm32h7xx_hal_pwr_ex.o
 .data          0x0000000000000000        0x0 build/stm32h7xx_hal_pwr_ex.o
 .bss           0x0000000000000000        0x0 build/stm32h7xx_hal_pwr_ex.o
 .text.HAL_PWREx_GetSupplyConfig
                0x0000000000000000       0x10 build/stm32h7xx_hal_pwr_ex.o
 .text.HAL_PWREx_ControlVoltageScaling
                0x0000000000000000       0x48 build/stm32h7xx_hal_pwr_ex.o
 .text.HAL_PWREx_GetVoltageRange
                0x0000000000000000       0x10 build/stm32h7xx_hal_pwr_ex.o
 .text.HAL_PWREx_ControlStopModeVoltageScaling
                0x0000000000000000       0x14 build/stm32h7xx_hal_pwr_ex.o
 .text.HAL_PWREx_GetStopModeVoltageRange
                0x0000000000000000       0x10 build/stm32h7xx_hal_pwr_ex.o
 .text.HAL_PWREx_EnterSTOPMode
                0x0000000000000000       0x68 build/stm32h7xx_hal_pwr_ex.o
 .text.HAL_PWREx_ClearPendingEvent
                0x0000000000000000        0x4 build/stm32h7xx_hal_pwr_ex.o
 .text.HAL_PWREx_EnterSTANDBYMode
                0x0000000000000000       0x40 build/stm32h7xx_hal_pwr_ex.o
 .text.HAL_PWREx_ConfigD3Domain
                0x0000000000000000       0x14 build/stm32h7xx_hal_pwr_ex.o
 .text.HAL_PWREx_EnableFlashPowerDown
                0x0000000000000000       0x10 build/stm32h7xx_hal_pwr_ex.o
 .text.HAL_PWREx_DisableFlashPowerDown
                0x0000000000000000       0x10 build/stm32h7xx_hal_pwr_ex.o
 .text.HAL_PWREx_EnableWakeUpPin
                0x0000000000000000       0xa8 build/stm32h7xx_hal_pwr_ex.o
 .text.HAL_PWREx_DisableWakeUpPin
                0x0000000000000000       0x10 build/stm32h7xx_hal_pwr_ex.o
 .text.HAL_PWREx_GetWakeupFlag
                0x0000000000000000        0xc build/stm32h7xx_hal_pwr_ex.o
 .text.HAL_PWREx_ClearWakeupFlag
                0x0000000000000000       0x1c build/stm32h7xx_hal_pwr_ex.o
 .text.HAL_PWREx_WKUP1_Callback
                0x0000000000000000        0x2 build/stm32h7xx_hal_pwr_ex.o
 .text.HAL_PWREx_WKUP2_Callback
                0x0000000000000000        0x2 build/stm32h7xx_hal_pwr_ex.o
 .text.HAL_PWREx_WKUP4_Callback
                0x0000000000000000        0x2 build/stm32h7xx_hal_pwr_ex.o
 .text.HAL_PWREx_WKUP6_Callback
                0x0000000000000000        0x2 build/stm32h7xx_hal_pwr_ex.o
 .text.HAL_PWREx_WAKEUP_PIN_IRQHandler
                0x0000000000000000       0x64 build/stm32h7xx_hal_pwr_ex.o
 .text.HAL_PWREx_EnableBkUpReg
                0x0000000000000000       0x34 build/stm32h7xx_hal_pwr_ex.o
 .text.HAL_PWREx_DisableBkUpReg
                0x0000000000000000       0x34 build/stm32h7xx_hal_pwr_ex.o
 .text.HAL_PWREx_EnableUSBReg
                0x0000000000000000       0x34 build/stm32h7xx_hal_pwr_ex.o
 .text.HAL_PWREx_DisableUSBReg
                0x0000000000000000       0x34 build/stm32h7xx_hal_pwr_ex.o
 .text.HAL_PWREx_EnableUSBVoltageDetector
                0x0000000000000000       0x10 build/stm32h7xx_hal_pwr_ex.o
 .text.HAL_PWREx_DisableUSBVoltageDetector
                0x0000000000000000       0x10 build/stm32h7xx_hal_pwr_ex.o
 .text.HAL_PWREx_EnableBatteryCharging
                0x0000000000000000       0x1c build/stm32h7xx_hal_pwr_ex.o
 .text.HAL_PWREx_DisableBatteryCharging
                0x0000000000000000       0x10 build/stm32h7xx_hal_pwr_ex.o
 .text.HAL_PWREx_EnableMonitoring
                0x0000000000000000       0x10 build/stm32h7xx_hal_pwr_ex.o
 .text.HAL_PWREx_DisableMonitoring
                0x0000000000000000       0x10 build/stm32h7xx_hal_pwr_ex.o
 .text.HAL_PWREx_GetTemperatureLevel
                0x0000000000000000       0x1c build/stm32h7xx_hal_pwr_ex.o
 .text.HAL_PWREx_GetVBATLevel
                0x0000000000000000       0x1c build/stm32h7xx_hal_pwr_ex.o
 .text.HAL_PWREx_ConfigAVD
                0x0000000000000000       0x98 build/stm32h7xx_hal_pwr_ex.o
 .text.HAL_PWREx_EnableAVD
                0x0000000000000000       0x10 build/stm32h7xx_hal_pwr_ex.o
 .text.HAL_PWREx_DisableAVD
                0x0000000000000000       0x10 build/stm32h7xx_hal_pwr_ex.o
 .text.HAL_PWREx_AVDCallback
                0x0000000000000000        0x2 build/stm32h7xx_hal_pwr_ex.o
 .text.HAL_PWREx_PVD_AVD_IRQHandler
                0x0000000000000000       0x64 build/stm32h7xx_hal_pwr_ex.o
 .text          0x0000000000000000        0x0 build/stm32h7xx_hal.o
 .data          0x0000000000000000        0x0 build/stm32h7xx_hal.o
 .bss           0x0000000000000000        0x0 build/stm32h7xx_hal.o
 .text.HAL_MspInit
                0x0000000000000000        0x2 build/stm32h7xx_hal.o
 .text.HAL_MspDeInit
                0x0000000000000000        0x2 build/stm32h7xx_hal.o
 .text.HAL_DeInit
                0x0000000000000000       0x90 build/stm32h7xx_hal.o
 .text.HAL_InitTick
                0x0000000000000000       0x50 build/stm32h7xx_hal.o
 .text.HAL_GetTickPrio
                0x0000000000000000        0xc build/stm32h7xx_hal.o
 .text.HAL_SetTickFreq
                0x0000000000000000       0x2c build/stm32h7xx_hal.o
 .text.HAL_GetTickFreq
                0x0000000000000000        0xc build/stm32h7xx_hal.o
 .text.HAL_Delay
                0x0000000000000000       0x28 build/stm32h7xx_hal.o
 .text.HAL_SuspendTick
                0x0000000000000000        0xe build/stm32h7xx_hal.o
 .text.HAL_ResumeTick
                0x0000000000000000        0xe build/stm32h7xx_hal.o
 .text.HAL_GetHalVersion
                0x0000000000000000        0x8 build/stm32h7xx_hal.o
 .text.HAL_GetREVID
                0x0000000000000000        0xc build/stm32h7xx_hal.o
 .text.HAL_GetDEVID
                0x0000000000000000       0x10 build/stm32h7xx_hal.o
 .text.HAL_GetUIDw0
                0x0000000000000000        0xc build/stm32h7xx_hal.o
 .text.HAL_GetUIDw1
                0x0000000000000000        0xc build/stm32h7xx_hal.o
 .text.HAL_GetUIDw2
                0x0000000000000000        0xc build/stm32h7xx_hal.o
 .text.HAL_SYSCFG_VREFBUF_VoltageScalingConfig
                0x0000000000000000       0x14 build/stm32h7xx_hal.o
 .text.HAL_SYSCFG_VREFBUF_HighImpedanceConfig
                0x0000000000000000       0x14 build/stm32h7xx_hal.o
 .text.HAL_SYSCFG_VREFBUF_TrimmingConfig
                0x0000000000000000       0x14 build/stm32h7xx_hal.o
 .text.HAL_SYSCFG_EnableVREFBUF
                0x0000000000000000       0x34 build/stm32h7xx_hal.o
 .text.HAL_SYSCFG_DisableVREFBUF
                0x0000000000000000       0x10 build/stm32h7xx_hal.o
 .text.HAL_SYSCFG_ETHInterfaceSelect
                0x0000000000000000       0x14 build/stm32h7xx_hal.o
 .text.HAL_SYSCFG_AnalogSwitchConfig
                0x0000000000000000       0x14 build/stm32h7xx_hal.o
 .text.HAL_SYSCFG_EnableBOOST
                0x0000000000000000       0x10 build/stm32h7xx_hal.o
 .text.HAL_SYSCFG_DisableBOOST
                0x0000000000000000       0x10 build/stm32h7xx_hal.o
 .text.HAL_SYSCFG_CM7BootAddConfig
                0x0000000000000000       0x34 build/stm32h7xx_hal.o
 .text.HAL_EnableCompensationCell
                0x0000000000000000       0x10 build/stm32h7xx_hal.o
 .text.HAL_DisableCompensationCell
                0x0000000000000000       0x10 build/stm32h7xx_hal.o
 .text.HAL_SYSCFG_EnableIOSpeedOptimize
                0x0000000000000000       0x10 build/stm32h7xx_hal.o
 .text.HAL_SYSCFG_DisableIOSpeedOptimize
                0x0000000000000000       0x10 build/stm32h7xx_hal.o
 .text.HAL_SYSCFG_CompensationCodeSelect
                0x0000000000000000       0x14 build/stm32h7xx_hal.o
 .text.HAL_SYSCFG_CompensationCodeConfig
                0x0000000000000000       0x18 build/stm32h7xx_hal.o
 .text.HAL_SYSCFG_ADC2ALT_Rout0Config
                0x0000000000000000       0x14 build/stm32h7xx_hal.o
 .text.HAL_SYSCFG_ADC2ALT_Rout1Config
                0x0000000000000000       0x14 build/stm32h7xx_hal.o
 .text.HAL_DBGMCU_EnableDBGSleepMode
                0x0000000000000000       0x10 build/stm32h7xx_hal.o
 .text.HAL_DBGMCU_DisableDBGSleepMode
                0x0000000000000000       0x10 build/stm32h7xx_hal.o
 .text.HAL_DBGMCU_EnableDBGStopMode
                0x0000000000000000       0x10 build/stm32h7xx_hal.o
 .text.HAL_DBGMCU_DisableDBGStopMode
                0x0000000000000000       0x10 build/stm32h7xx_hal.o
 .text.HAL_DBGMCU_EnableDBGStandbyMode
                0x0000000000000000       0x10 build/stm32h7xx_hal.o
 .text.HAL_DBGMCU_DisableDBGStandbyMode
                0x0000000000000000       0x10 build/stm32h7xx_hal.o
 .text.HAL_EnableDomain3DBGStopMode
                0x0000000000000000       0x10 build/stm32h7xx_hal.o
 .text.HAL_DisableDomain3DBGStopMode
                0x0000000000000000       0x10 build/stm32h7xx_hal.o
 .text.HAL_EnableDomain3DBGStandbyMode
                0x0000000000000000       0x10 build/stm32h7xx_hal.o
 .text.HAL_DisableDomain3DBGStandbyMode
                0x0000000000000000       0x10 build/stm32h7xx_hal.o
 .text.HAL_SetFMCMemorySwappingConfig
                0x0000000000000000       0x14 build/stm32h7xx_hal.o
 .text.HAL_GetFMCMemorySwappingConfig
                0x0000000000000000       0x10 build/stm32h7xx_hal.o
 .text.HAL_EXTI_EdgeConfig
                0x0000000000000000       0x54 build/stm32h7xx_hal.o
 .text.HAL_EXTI_GenerateSWInterrupt
                0x0000000000000000       0x20 build/stm32h7xx_hal.o
 .text.HAL_EXTI_D1_ClearFlag
                0x0000000000000000       0x18 build/stm32h7xx_hal.o
 .text.HAL_EXTI_D1_EventInputConfig
                0x0000000000000000       0x84 build/stm32h7xx_hal.o
 .text.HAL_EXTI_D3_EventInputConfig
                0x0000000000000000       0x7c build/stm32h7xx_hal.o
 .text          0x0000000000000000        0x0 build/stm32h7xx_hal_i2c.o
 .data          0x0000000000000000        0x0 build/stm32h7xx_hal_i2c.o
 .bss           0x0000000000000000        0x0 build/stm32h7xx_hal_i2c.o
 .text.I2C_Flush_TXDR
                0x0000000000000000       0x22 build/stm32h7xx_hal_i2c.o
 .text.I2C_TransferConfig
                0x0000000000000000       0x3c build/stm32h7xx_hal_i2c.o
 .text.I2C_Enable_IRQ
                0x0000000000000000       0x80 build/stm32h7xx_hal_i2c.o
 .text.I2C_Disable_IRQ
                0x0000000000000000       0x70 build/stm32h7xx_hal_i2c.o
 .text.I2C_ConvertOtherXferOptions
                0x0000000000000000       0x1e build/stm32h7xx_hal_i2c.o
 .text.I2C_IsErrorOccurred
                0x0000000000000000      0x118 build/stm32h7xx_hal_i2c.o
 .text.I2C_WaitOnTXISFlagUntilTimeout
                0x0000000000000000       0x60 build/stm32h7xx_hal_i2c.o
 .text.I2C_WaitOnFlagUntilTimeout
                0x0000000000000000       0x6e build/stm32h7xx_hal_i2c.o
 .text.I2C_RequestMemoryWrite
                0x0000000000000000       0x7c build/stm32h7xx_hal_i2c.o
 .text.I2C_RequestMemoryRead
                0x0000000000000000       0x78 build/stm32h7xx_hal_i2c.o
 .text.I2C_WaitOnSTOPFlagUntilTimeout
                0x0000000000000000       0x5e build/stm32h7xx_hal_i2c.o
 .text.I2C_WaitOnRXNEFlagUntilTimeout
                0x0000000000000000       0xba build/stm32h7xx_hal_i2c.o
 .text.HAL_I2C_MspInit
                0x0000000000000000        0x2 build/stm32h7xx_hal_i2c.o
 .text.HAL_I2C_Init
                0x0000000000000000       0xbc build/stm32h7xx_hal_i2c.o
 .text.HAL_I2C_MspDeInit
                0x0000000000000000        0x2 build/stm32h7xx_hal_i2c.o
 .text.HAL_I2C_DeInit
                0x0000000000000000       0x32 build/stm32h7xx_hal_i2c.o
 .text.HAL_I2C_Master_Transmit
                0x0000000000000000      0x17c build/stm32h7xx_hal_i2c.o
 .text.HAL_I2C_Master_Receive
                0x0000000000000000      0x17c build/stm32h7xx_hal_i2c.o
 .text.HAL_I2C_Slave_Transmit
                0x0000000000000000      0x1d2 build/stm32h7xx_hal_i2c.o
 .text.HAL_I2C_Slave_Receive
                0x0000000000000000      0x184 build/stm32h7xx_hal_i2c.o
 .text.HAL_I2C_Master_Transmit_IT
                0x0000000000000000       0x98 build/stm32h7xx_hal_i2c.o
 .text.HAL_I2C_Master_Receive_IT
                0x0000000000000000       0x98 build/stm32h7xx_hal_i2c.o
 .text.HAL_I2C_Slave_Transmit_IT
                0x0000000000000000       0x8c build/stm32h7xx_hal_i2c.o
 .text.HAL_I2C_Slave_Receive_IT
                0x0000000000000000       0x64 build/stm32h7xx_hal_i2c.o
 .text.HAL_I2C_Master_Transmit_DMA
                0x0000000000000000      0x154 build/stm32h7xx_hal_i2c.o
 .text.HAL_I2C_Master_Receive_DMA
                0x0000000000000000      0x150 build/stm32h7xx_hal_i2c.o
 .text.HAL_I2C_Slave_Transmit_DMA
                0x0000000000000000      0x140 build/stm32h7xx_hal_i2c.o
 .text.HAL_I2C_Slave_Receive_DMA
                0x0000000000000000       0xf4 build/stm32h7xx_hal_i2c.o
 .text.HAL_I2C_Mem_Write
                0x0000000000000000      0x1aa build/stm32h7xx_hal_i2c.o
 .text.HAL_I2C_Mem_Read
                0x0000000000000000      0x1b0 build/stm32h7xx_hal_i2c.o
 .text.HAL_I2C_Mem_Write_IT
                0x0000000000000000       0xb8 build/stm32h7xx_hal_i2c.o
 .text.HAL_I2C_Mem_Read_IT
                0x0000000000000000       0xb4 build/stm32h7xx_hal_i2c.o
 .text.HAL_I2C_Mem_Write_DMA
                0x0000000000000000      0x134 build/stm32h7xx_hal_i2c.o
 .text.HAL_I2C_Mem_Read_DMA
                0x0000000000000000      0x134 build/stm32h7xx_hal_i2c.o
 .text.HAL_I2C_IsDeviceReady
                0x0000000000000000      0x16c build/stm32h7xx_hal_i2c.o
 .text.HAL_I2C_Master_Seq_Transmit_IT
                0x0000000000000000       0xb4 build/stm32h7xx_hal_i2c.o
 .text.HAL_I2C_Master_Seq_Transmit_DMA
                0x0000000000000000      0x174 build/stm32h7xx_hal_i2c.o
 .text.HAL_I2C_Master_Seq_Receive_IT
                0x0000000000000000       0xb4 build/stm32h7xx_hal_i2c.o
 .text.HAL_I2C_Master_Seq_Receive_DMA
                0x0000000000000000      0x174 build/stm32h7xx_hal_i2c.o
 .text.HAL_I2C_Slave_Seq_Transmit_IT
                0x0000000000000000       0xe4 build/stm32h7xx_hal_i2c.o
 .text.HAL_I2C_Slave_Seq_Transmit_DMA
                0x0000000000000000      0x1ac build/stm32h7xx_hal_i2c.o
 .text.HAL_I2C_Slave_Seq_Receive_IT
                0x0000000000000000       0xe4 build/stm32h7xx_hal_i2c.o
 .text.HAL_I2C_Slave_Seq_Receive_DMA
                0x0000000000000000      0x1ac build/stm32h7xx_hal_i2c.o
 .text.HAL_I2C_EnableListen_IT
                0x0000000000000000       0x2c build/stm32h7xx_hal_i2c.o
 .text.HAL_I2C_DisableListen_IT
                0x0000000000000000       0x3a build/stm32h7xx_hal_i2c.o
 .text.HAL_I2C_Master_Abort_IT
                0x0000000000000000       0x84 build/stm32h7xx_hal_i2c.o
 .text.HAL_I2C_EV_IRQHandler
                0x0000000000000000       0x10 build/stm32h7xx_hal_i2c.o
 .text.HAL_I2C_MasterTxCpltCallback
                0x0000000000000000        0x2 build/stm32h7xx_hal_i2c.o
 .text.HAL_I2C_MasterRxCpltCallback
                0x0000000000000000        0x2 build/stm32h7xx_hal_i2c.o
 .text.I2C_ITMasterSeqCplt
                0x0000000000000000       0x54 build/stm32h7xx_hal_i2c.o
 .text.HAL_I2C_SlaveTxCpltCallback
                0x0000000000000000        0x2 build/stm32h7xx_hal_i2c.o
 .text.HAL_I2C_SlaveRxCpltCallback
                0x0000000000000000        0x2 build/stm32h7xx_hal_i2c.o
 .text.I2C_ITSlaveSeqCplt
                0x0000000000000000       0x82 build/stm32h7xx_hal_i2c.o
 .text.I2C_DMASlaveTransmitCplt
                0x0000000000000000       0x22 build/stm32h7xx_hal_i2c.o
 .text.I2C_DMASlaveReceiveCplt
                0x0000000000000000       0xa0 build/stm32h7xx_hal_i2c.o
 .text.HAL_I2C_AddrCallback
                0x0000000000000000        0x2 build/stm32h7xx_hal_i2c.o
 .text.I2C_ITAddrCplt
                0x0000000000000000       0xa0 build/stm32h7xx_hal_i2c.o
 .text.HAL_I2C_ListenCpltCallback
                0x0000000000000000        0x2 build/stm32h7xx_hal_i2c.o
 .text.I2C_ITListenCplt
                0x0000000000000000       0x68 build/stm32h7xx_hal_i2c.o
 .text.HAL_I2C_MemTxCpltCallback
                0x0000000000000000        0x2 build/stm32h7xx_hal_i2c.o
 .text.HAL_I2C_MemRxCpltCallback
                0x0000000000000000        0x2 build/stm32h7xx_hal_i2c.o
 .text.HAL_I2C_ErrorCallback
                0x0000000000000000        0x2 build/stm32h7xx_hal_i2c.o
 .text.HAL_I2C_AbortCpltCallback
                0x0000000000000000        0x2 build/stm32h7xx_hal_i2c.o
 .text.I2C_TreatErrorCallback
                0x0000000000000000       0x2e build/stm32h7xx_hal_i2c.o
 .text.I2C_ITError
                0x0000000000000000      0x130 build/stm32h7xx_hal_i2c.o
 .text.I2C_ITSlaveCplt
                0x0000000000000000      0x244 build/stm32h7xx_hal_i2c.o
 .text.I2C_Slave_ISR_IT
                0x0000000000000000      0x150 build/stm32h7xx_hal_i2c.o
 .text.I2C_ITMasterCplt
                0x0000000000000000      0x12e build/stm32h7xx_hal_i2c.o
 .text.I2C_Master_ISR_IT
                0x0000000000000000      0x180 build/stm32h7xx_hal_i2c.o
 .text.I2C_Slave_ISR_DMA
                0x0000000000000000      0x220 build/stm32h7xx_hal_i2c.o
 .text.I2C_Master_ISR_DMA
                0x0000000000000000      0x142 build/stm32h7xx_hal_i2c.o
 .text.I2C_DMAError
                0x0000000000000000      0x138 build/stm32h7xx_hal_i2c.o
 .text.I2C_DMAMasterTransmitCplt
                0x0000000000000000       0x5a build/stm32h7xx_hal_i2c.o
 .text.I2C_DMAMasterReceiveCplt
                0x0000000000000000       0x5a build/stm32h7xx_hal_i2c.o
 .text.I2C_Mem_ISR_IT
                0x0000000000000000      0x188 build/stm32h7xx_hal_i2c.o
 .text.I2C_Mem_ISR_DMA
                0x0000000000000000      0x194 build/stm32h7xx_hal_i2c.o
 .text.HAL_I2C_ER_IRQHandler
                0x0000000000000000       0x6a build/stm32h7xx_hal_i2c.o
 .text.I2C_DMAAbort
                0x0000000000000000       0x1a build/stm32h7xx_hal_i2c.o
 .text.HAL_I2C_GetState
                0x0000000000000000        0x6 build/stm32h7xx_hal_i2c.o
 .text.HAL_I2C_GetMode
                0x0000000000000000        0x6 build/stm32h7xx_hal_i2c.o
 .text.HAL_I2C_GetError
                0x0000000000000000        0x4 build/stm32h7xx_hal_i2c.o
 .debug_info    0x0000000000000000     0x4602 build/stm32h7xx_hal_i2c.o
 .debug_abbrev  0x0000000000000000      0x2a9 build/stm32h7xx_hal_i2c.o
 .debug_loc     0x0000000000000000     0x58a9 build/stm32h7xx_hal_i2c.o
 .debug_aranges
                0x0000000000000000      0x2a0 build/stm32h7xx_hal_i2c.o
 .debug_ranges  0x0000000000000000      0x290 build/stm32h7xx_hal_i2c.o
 .debug_line    0x0000000000000000     0x50b6 build/stm32h7xx_hal_i2c.o
 .debug_str     0x0000000000000000     0x1147 build/stm32h7xx_hal_i2c.o
 .comment       0x0000000000000000       0x34 build/stm32h7xx_hal_i2c.o
 .debug_frame   0x0000000000000000      0x984 build/stm32h7xx_hal_i2c.o
 .ARM.attributes
                0x0000000000000000       0x32 build/stm32h7xx_hal_i2c.o
 .text          0x0000000000000000        0x0 build/stm32h7xx_hal_i2c_ex.o
 .data          0x0000000000000000        0x0 build/stm32h7xx_hal_i2c_ex.o
 .bss           0x0000000000000000        0x0 build/stm32h7xx_hal_i2c_ex.o
 .text.HAL_I2CEx_ConfigAnalogFilter
                0x0000000000000000       0x5c build/stm32h7xx_hal_i2c_ex.o
 .text.HAL_I2CEx_ConfigDigitalFilter
                0x0000000000000000       0x58 build/stm32h7xx_hal_i2c_ex.o
 .text.HAL_I2CEx_EnableWakeUp
                0x0000000000000000       0x54 build/stm32h7xx_hal_i2c_ex.o
 .text.HAL_I2CEx_DisableWakeUp
                0x0000000000000000       0x54 build/stm32h7xx_hal_i2c_ex.o
 .text.HAL_I2CEx_EnableFastModePlus
                0x0000000000000000       0x30 build/stm32h7xx_hal_i2c_ex.o
 .text.HAL_I2CEx_DisableFastModePlus
                0x0000000000000000       0x34 build/stm32h7xx_hal_i2c_ex.o
 .debug_info    0x0000000000000000      0xfe5 build/stm32h7xx_hal_i2c_ex.o
 .debug_abbrev  0x0000000000000000      0x1c4 build/stm32h7xx_hal_i2c_ex.o
 .debug_loc     0x0000000000000000      0x25a build/stm32h7xx_hal_i2c_ex.o
 .debug_aranges
                0x0000000000000000       0x48 build/stm32h7xx_hal_i2c_ex.o
 .debug_ranges  0x0000000000000000       0x38 build/stm32h7xx_hal_i2c_ex.o
 .debug_line    0x0000000000000000      0x42c build/stm32h7xx_hal_i2c_ex.o
 .debug_str     0x0000000000000000      0xb15 build/stm32h7xx_hal_i2c_ex.o
 .comment       0x0000000000000000       0x34 build/stm32h7xx_hal_i2c_ex.o
 .debug_frame   0x0000000000000000       0x80 build/stm32h7xx_hal_i2c_ex.o
 .ARM.attributes
                0x0000000000000000       0x32 build/stm32h7xx_hal_i2c_ex.o
 .text          0x0000000000000000        0x0 build/stm32h7xx_hal_exti.o
 .data          0x0000000000000000        0x0 build/stm32h7xx_hal_exti.o
 .bss           0x0000000000000000        0x0 build/stm32h7xx_hal_exti.o
 .text.HAL_EXTI_SetConfigLine
                0x0000000000000000      0x144 build/stm32h7xx_hal_exti.o
 .text.HAL_EXTI_GetConfigLine
                0x0000000000000000      0x108 build/stm32h7xx_hal_exti.o
 .text.HAL_EXTI_ClearConfigLine
                0x0000000000000000       0xec build/stm32h7xx_hal_exti.o
 .text.HAL_EXTI_RegisterCallback
                0x0000000000000000       0x12 build/stm32h7xx_hal_exti.o
 .text.HAL_EXTI_GetHandle
                0x0000000000000000        0xc build/stm32h7xx_hal_exti.o
 .text.HAL_EXTI_IRQHandler
                0x0000000000000000       0x2c build/stm32h7xx_hal_exti.o
 .text.HAL_EXTI_GetPending
                0x0000000000000000       0x20 build/stm32h7xx_hal_exti.o
 .text.HAL_EXTI_ClearPending
                0x0000000000000000       0x1c build/stm32h7xx_hal_exti.o
 .text.HAL_EXTI_GenerateSWI
                0x0000000000000000       0x1c build/stm32h7xx_hal_exti.o
 .debug_info    0x0000000000000000      0xb3b build/stm32h7xx_hal_exti.o
 .debug_abbrev  0x0000000000000000      0x1e0 build/stm32h7xx_hal_exti.o
 .debug_loc     0x0000000000000000      0xeab build/stm32h7xx_hal_exti.o
 .debug_aranges
                0x0000000000000000       0x60 build/stm32h7xx_hal_exti.o
 .debug_ranges  0x0000000000000000       0x50 build/stm32h7xx_hal_exti.o
 .debug_line    0x0000000000000000      0x827 build/stm32h7xx_hal_exti.o
 .debug_str     0x0000000000000000      0x4ef build/stm32h7xx_hal_exti.o
 .comment       0x0000000000000000       0x34 build/stm32h7xx_hal_exti.o
 .debug_frame   0x0000000000000000      0x100 build/stm32h7xx_hal_exti.o
 .ARM.attributes
                0x0000000000000000       0x32 build/stm32h7xx_hal_exti.o
 .text          0x0000000000000000        0x0 build/stm32h7xx_hal_tim.o
 .data          0x0000000000000000        0x0 build/stm32h7xx_hal_tim.o
 .bss           0x0000000000000000        0x0 build/stm32h7xx_hal_tim.o
 .text.TIM_OC1_SetConfig
                0x0000000000000000       0xa8 build/stm32h7xx_hal_tim.o
 .text.TIM_OC3_SetConfig
                0x0000000000000000       0x94 build/stm32h7xx_hal_tim.o
 .text.TIM_OC4_SetConfig
                0x0000000000000000       0x74 build/stm32h7xx_hal_tim.o
 .text.TIM_OC5_SetConfig
                0x0000000000000000       0x74 build/stm32h7xx_hal_tim.o
 .text.TIM_OC6_SetConfig
                0x0000000000000000       0x74 build/stm32h7xx_hal_tim.o
 .text.TIM_TI1_ConfigInputStage
                0x0000000000000000       0x26 build/stm32h7xx_hal_tim.o
 .text.TIM_TI2_SetConfig
                0x0000000000000000       0x36 build/stm32h7xx_hal_tim.o
 .text.TIM_TI2_ConfigInputStage
                0x0000000000000000       0x28 build/stm32h7xx_hal_tim.o
 .text.TIM_TI3_SetConfig
                0x0000000000000000       0x36 build/stm32h7xx_hal_tim.o
 .text.TIM_TI4_SetConfig
                0x0000000000000000       0x36 build/stm32h7xx_hal_tim.o
 .text.TIM_ITRx_SetConfig
                0x0000000000000000       0x14 build/stm32h7xx_hal_tim.o
 .text.HAL_TIM_Base_MspDeInit
                0x0000000000000000        0x2 build/stm32h7xx_hal_tim.o
 .text.HAL_TIM_Base_DeInit
                0x0000000000000000       0x66 build/stm32h7xx_hal_tim.o
 .text.HAL_TIM_Base_Start
                0x0000000000000000       0x98 build/stm32h7xx_hal_tim.o
 .text.HAL_TIM_Base_Stop
                0x0000000000000000       0x28 build/stm32h7xx_hal_tim.o
 .text.HAL_TIM_Base_Stop_IT
                0x0000000000000000       0x32 build/stm32h7xx_hal_tim.o
 .text.HAL_TIM_Base_Start_DMA
                0x0000000000000000       0xec build/stm32h7xx_hal_tim.o
 .text.HAL_TIM_Base_Stop_DMA
                0x0000000000000000       0x3c build/stm32h7xx_hal_tim.o
 .text.HAL_TIM_OC_MspInit
                0x0000000000000000        0x2 build/stm32h7xx_hal_tim.o
 .text.HAL_TIM_OC_MspDeInit
                0x0000000000000000        0x2 build/stm32h7xx_hal_tim.o
 .text.HAL_TIM_OC_DeInit
                0x0000000000000000       0x66 build/stm32h7xx_hal_tim.o
 .text.HAL_TIM_PWM_MspInit
                0x0000000000000000        0x2 build/stm32h7xx_hal_tim.o
 .text.HAL_TIM_PWM_MspDeInit
                0x0000000000000000        0x2 build/stm32h7xx_hal_tim.o
 .text.HAL_TIM_PWM_DeInit
                0x0000000000000000       0x66 build/stm32h7xx_hal_tim.o
 .text.HAL_TIM_IC_MspInit
                0x0000000000000000        0x2 build/stm32h7xx_hal_tim.o
 .text.HAL_TIM_IC_MspDeInit
                0x0000000000000000        0x2 build/stm32h7xx_hal_tim.o
 .text.HAL_TIM_IC_DeInit
                0x0000000000000000       0x66 build/stm32h7xx_hal_tim.o
 .text.HAL_TIM_OnePulse_MspInit
                0x0000000000000000        0x2 build/stm32h7xx_hal_tim.o
 .text.HAL_TIM_OnePulse_MspDeInit
                0x0000000000000000        0x2 build/stm32h7xx_hal_tim.o
 .text.HAL_TIM_OnePulse_DeInit
                0x0000000000000000       0x4e build/stm32h7xx_hal_tim.o
 .text.HAL_TIM_Encoder_MspInit
                0x0000000000000000        0x2 build/stm32h7xx_hal_tim.o
 .text.HAL_TIM_Encoder_MspDeInit
                0x0000000000000000        0x2 build/stm32h7xx_hal_tim.o
 .text.HAL_TIM_Encoder_DeInit
                0x0000000000000000       0x4e build/stm32h7xx_hal_tim.o
 .text.HAL_TIM_DMABurst_MultiWriteStart
                0x0000000000000000      0x1ac build/stm32h7xx_hal_tim.o
 .text.HAL_TIM_DMABurst_WriteStart
                0x0000000000000000       0x16 build/stm32h7xx_hal_tim.o
 .text.HAL_TIM_DMABurst_WriteStop
                0x0000000000000000       0x84 build/stm32h7xx_hal_tim.o
 .text.HAL_TIM_DMABurst_MultiReadStart
                0x0000000000000000      0x1b0 build/stm32h7xx_hal_tim.o
 .text.HAL_TIM_DMABurst_ReadStart
                0x0000000000000000       0x16 build/stm32h7xx_hal_tim.o
 .text.HAL_TIM_DMABurst_ReadStop
                0x0000000000000000       0x84 build/stm32h7xx_hal_tim.o
 .text.HAL_TIM_GenerateEvent
                0x0000000000000000       0x2a build/stm32h7xx_hal_tim.o
 .text.HAL_TIM_ConfigTI1Input
                0x0000000000000000       0x10 build/stm32h7xx_hal_tim.o
 .text.HAL_TIM_ReadCapturedValue
                0x0000000000000000       0x32 build/stm32h7xx_hal_tim.o
 .text.HAL_TIM_PeriodElapsedCallback
                0x0000000000000000        0x2 build/stm32h7xx_hal_tim.o
 .text.TIM_DMAPeriodElapsedCplt
                0x0000000000000000       0x16 build/stm32h7xx_hal_tim.o
 .text.HAL_TIM_PeriodElapsedHalfCpltCallback
                0x0000000000000000        0x2 build/stm32h7xx_hal_tim.o
 .text.TIM_DMAPeriodElapsedHalfCplt
                0x0000000000000000        0xa build/stm32h7xx_hal_tim.o
 .text.TIM_DMACaptureCplt
                0x0000000000000000       0x80 build/stm32h7xx_hal_tim.o
 .text.HAL_TIM_IC_CaptureHalfCpltCallback
                0x0000000000000000        0x2 build/stm32h7xx_hal_tim.o
 .text.TIM_DMACaptureHalfCplt
                0x0000000000000000       0x3e build/stm32h7xx_hal_tim.o
 .text.TIM_DMADelayPulseCplt
                0x0000000000000000       0x70 build/stm32h7xx_hal_tim.o
 .text.HAL_TIM_PWM_PulseFinishedHalfCpltCallback
                0x0000000000000000        0x2 build/stm32h7xx_hal_tim.o
 .text.TIM_DMADelayPulseHalfCplt
                0x0000000000000000       0x3e build/stm32h7xx_hal_tim.o
 .text.TIM_DMATriggerCplt
                0x0000000000000000       0x16 build/stm32h7xx_hal_tim.o
 .text.HAL_TIM_TriggerHalfCpltCallback
                0x0000000000000000        0x2 build/stm32h7xx_hal_tim.o
 .text.TIM_DMATriggerHalfCplt
                0x0000000000000000        0xa build/stm32h7xx_hal_tim.o
 .text.HAL_TIM_ErrorCallback
                0x0000000000000000        0x2 build/stm32h7xx_hal_tim.o
 .text.TIM_DMAError
                0x0000000000000000       0x5c build/stm32h7xx_hal_tim.o
 .text.HAL_TIM_Base_GetState
                0x0000000000000000        0x6 build/stm32h7xx_hal_tim.o
 .text.HAL_TIM_OC_GetState
                0x0000000000000000        0x6 build/stm32h7xx_hal_tim.o
 .text.HAL_TIM_PWM_GetState
                0x0000000000000000        0x6 build/stm32h7xx_hal_tim.o
 .text.HAL_TIM_IC_GetState
                0x0000000000000000        0x6 build/stm32h7xx_hal_tim.o
 .text.HAL_TIM_OnePulse_GetState
                0x0000000000000000        0x6 build/stm32h7xx_hal_tim.o
 .text.HAL_TIM_Encoder_GetState
                0x0000000000000000        0x6 build/stm32h7xx_hal_tim.o
 .text.HAL_TIM_GetActiveChannel
                0x0000000000000000        0x4 build/stm32h7xx_hal_tim.o
 .text.HAL_TIM_GetChannelState
                0x0000000000000000       0x42 build/stm32h7xx_hal_tim.o
 .text.HAL_TIM_DMABurstState
                0x0000000000000000        0x6 build/stm32h7xx_hal_tim.o
 .text.HAL_TIM_OC_Init
                0x0000000000000000       0x60 build/stm32h7xx_hal_tim.o
 .text.HAL_TIM_PWM_Init
                0x0000000000000000       0x60 build/stm32h7xx_hal_tim.o
 .text.HAL_TIM_IC_Init
                0x0000000000000000       0x60 build/stm32h7xx_hal_tim.o
 .text.HAL_TIM_OnePulse_Init
                0x0000000000000000       0x5c build/stm32h7xx_hal_tim.o
 .text.HAL_TIM_Encoder_Init
                0x0000000000000000       0xb4 build/stm32h7xx_hal_tim.o
 .text.TIM_OC2_SetConfig
                0x0000000000000000       0x94 build/stm32h7xx_hal_tim.o
 .text.HAL_TIM_OC_ConfigChannel
                0x0000000000000000       0x7a build/stm32h7xx_hal_tim.o
 .text.HAL_TIM_PWM_ConfigChannel
                0x0000000000000000      0x13a build/stm32h7xx_hal_tim.o
 .text.TIM_TI1_SetConfig
                0x0000000000000000       0xac build/stm32h7xx_hal_tim.o
 .text.HAL_TIM_IC_ConfigChannel
                0x0000000000000000       0xc4 build/stm32h7xx_hal_tim.o
 .text.HAL_TIM_OnePulse_ConfigChannel
                0x0000000000000000      0x104 build/stm32h7xx_hal_tim.o
 .text.TIM_ETR_SetConfig
                0x0000000000000000       0x1a build/stm32h7xx_hal_tim.o
 .text.HAL_TIM_ConfigOCrefClear
                0x0000000000000000      0x144 build/stm32h7xx_hal_tim.o
 .text.HAL_TIM_ConfigClockSource
                0x0000000000000000      0x138 build/stm32h7xx_hal_tim.o
 .text.TIM_SlaveTimer_SetConfig
                0x0000000000000000      0x150 build/stm32h7xx_hal_tim.o
 .text.HAL_TIM_SlaveConfigSynchro
                0x0000000000000000       0x52 build/stm32h7xx_hal_tim.o
 .text.HAL_TIM_SlaveConfigSynchro_IT
                0x0000000000000000       0x52 build/stm32h7xx_hal_tim.o
 .text.TIM_CCxChannelCmd
                0x0000000000000000       0x1e build/stm32h7xx_hal_tim.o
 .text.HAL_TIM_OC_Start
                0x0000000000000000      0x178 build/stm32h7xx_hal_tim.o
 .text.HAL_TIM_OC_Stop
                0x0000000000000000       0xbc build/stm32h7xx_hal_tim.o
 .text.HAL_TIM_OC_Start_IT
                0x0000000000000000      0x1c0 build/stm32h7xx_hal_tim.o
 .text.HAL_TIM_OC_Stop_IT
                0x0000000000000000      0x110 build/stm32h7xx_hal_tim.o
 .text.HAL_TIM_OC_Start_DMA
                0x0000000000000000      0x30c build/stm32h7xx_hal_tim.o
 .text.HAL_TIM_OC_Stop_DMA
                0x0000000000000000      0x128 build/stm32h7xx_hal_tim.o
 .text.HAL_TIM_PWM_Start
                0x0000000000000000      0x178 build/stm32h7xx_hal_tim.o
 .text.HAL_TIM_PWM_Stop
                0x0000000000000000       0xbc build/stm32h7xx_hal_tim.o
 .text.HAL_TIM_PWM_Start_IT
                0x0000000000000000      0x1c0 build/stm32h7xx_hal_tim.o
 .text.HAL_TIM_PWM_Stop_IT
                0x0000000000000000      0x110 build/stm32h7xx_hal_tim.o
 .text.HAL_TIM_PWM_Start_DMA
                0x0000000000000000      0x30c build/stm32h7xx_hal_tim.o
 .text.HAL_TIM_PWM_Stop_DMA
                0x0000000000000000      0x128 build/stm32h7xx_hal_tim.o
 .text.HAL_TIM_IC_Start
                0x0000000000000000      0x178 build/stm32h7xx_hal_tim.o
 .text.HAL_TIM_IC_Stop
                0x0000000000000000       0x98 build/stm32h7xx_hal_tim.o
 .text.HAL_TIM_IC_Start_IT
                0x0000000000000000      0x1c0 build/stm32h7xx_hal_tim.o
 .text.HAL_TIM_IC_Stop_IT
                0x0000000000000000       0xe8 build/stm32h7xx_hal_tim.o
 .text.HAL_TIM_IC_Start_DMA
                0x0000000000000000      0x294 build/stm32h7xx_hal_tim.o
 .text.HAL_TIM_IC_Stop_DMA
                0x0000000000000000      0x100 build/stm32h7xx_hal_tim.o
 .text.HAL_TIM_OnePulse_Start
                0x0000000000000000       0x9c build/stm32h7xx_hal_tim.o
 .text.HAL_TIM_OnePulse_Stop
                0x0000000000000000       0x98 build/stm32h7xx_hal_tim.o
 .text.HAL_TIM_OnePulse_Start_IT
                0x0000000000000000       0xb4 build/stm32h7xx_hal_tim.o
 .text.HAL_TIM_OnePulse_Stop_IT
                0x0000000000000000       0xac build/stm32h7xx_hal_tim.o
 .text.HAL_TIM_Encoder_Start
                0x0000000000000000       0xc8 build/stm32h7xx_hal_tim.o
 .text.HAL_TIM_Encoder_Stop
                0x0000000000000000       0xde build/stm32h7xx_hal_tim.o
 .text.HAL_TIM_Encoder_Start_IT
                0x0000000000000000       0xf4 build/stm32h7xx_hal_tim.o
 .text.HAL_TIM_Encoder_Stop_IT
                0x0000000000000000      0x108 build/stm32h7xx_hal_tim.o
 .text.HAL_TIM_Encoder_Start_DMA
                0x0000000000000000      0x24c build/stm32h7xx_hal_tim.o
 .text.HAL_TIM_Encoder_Stop_DMA
                0x0000000000000000      0x122 build/stm32h7xx_hal_tim.o
 .text          0x0000000000000000        0x0 build/stm32h7xx_hal_tim_ex.o
 .data          0x0000000000000000        0x0 build/stm32h7xx_hal_tim_ex.o
 .bss           0x0000000000000000        0x0 build/stm32h7xx_hal_tim_ex.o
 .text.TIM_CCxNChannelCmd
                0x0000000000000000       0x1e build/stm32h7xx_hal_tim_ex.o
 .text.TIM_DMAErrorCCxN
                0x0000000000000000       0x44 build/stm32h7xx_hal_tim_ex.o
 .text.TIM_DMADelayPulseNCplt
                0x0000000000000000       0x70 build/stm32h7xx_hal_tim_ex.o
 .text.HAL_TIMEx_HallSensor_MspInit
                0x0000000000000000        0x2 build/stm32h7xx_hal_tim_ex.o
 .text.HAL_TIMEx_HallSensor_Init
                0x0000000000000000       0xdc build/stm32h7xx_hal_tim_ex.o
 .text.HAL_TIMEx_HallSensor_MspDeInit
                0x0000000000000000        0x2 build/stm32h7xx_hal_tim_ex.o
 .text.HAL_TIMEx_HallSensor_DeInit
                0x0000000000000000       0x4e build/stm32h7xx_hal_tim_ex.o
 .text.HAL_TIMEx_HallSensor_Start
                0x0000000000000000       0xd8 build/stm32h7xx_hal_tim_ex.o
 .text.HAL_TIMEx_HallSensor_Stop
                0x0000000000000000       0x42 build/stm32h7xx_hal_tim_ex.o
 .text.HAL_TIMEx_HallSensor_Start_IT
                0x0000000000000000       0xe4 build/stm32h7xx_hal_tim_ex.o
 .text.HAL_TIMEx_HallSensor_Stop_IT
                0x0000000000000000       0x4c build/stm32h7xx_hal_tim_ex.o
 .text.HAL_TIMEx_HallSensor_Start_DMA
                0x0000000000000000      0x10c build/stm32h7xx_hal_tim_ex.o
 .text.HAL_TIMEx_HallSensor_Stop_DMA
                0x0000000000000000       0x4a build/stm32h7xx_hal_tim_ex.o
 .text.HAL_TIMEx_OCN_Start
                0x0000000000000000      0x110 build/stm32h7xx_hal_tim_ex.o
 .text.HAL_TIMEx_OCN_Stop
                0x0000000000000000       0x76 build/stm32h7xx_hal_tim_ex.o
 .text.HAL_TIMEx_OCN_Start_IT
                0x0000000000000000      0x148 build/stm32h7xx_hal_tim_ex.o
 .text.HAL_TIMEx_OCN_Stop_IT
                0x0000000000000000       0xc2 build/stm32h7xx_hal_tim_ex.o
 .text.HAL_TIMEx_OCN_Start_DMA
                0x0000000000000000      0x230 build/stm32h7xx_hal_tim_ex.o
 .text.HAL_TIMEx_OCN_Stop_DMA
                0x0000000000000000       0xc0 build/stm32h7xx_hal_tim_ex.o
 .text.HAL_TIMEx_PWMN_Start
                0x0000000000000000      0x110 build/stm32h7xx_hal_tim_ex.o
 .text.HAL_TIMEx_PWMN_Stop
                0x0000000000000000       0x76 build/stm32h7xx_hal_tim_ex.o
 .text.HAL_TIMEx_PWMN_Start_IT
                0x0000000000000000      0x148 build/stm32h7xx_hal_tim_ex.o
 .text.HAL_TIMEx_PWMN_Stop_IT
                0x0000000000000000       0xc2 build/stm32h7xx_hal_tim_ex.o
 .text.HAL_TIMEx_PWMN_Start_DMA
                0x0000000000000000      0x230 build/stm32h7xx_hal_tim_ex.o
 .text.HAL_TIMEx_PWMN_Stop_DMA
                0x0000000000000000       0xc0 build/stm32h7xx_hal_tim_ex.o
 .text.HAL_TIMEx_OnePulseN_Start
                0x0000000000000000       0x7a build/stm32h7xx_hal_tim_ex.o
 .text.HAL_TIMEx_OnePulseN_Stop
                0x0000000000000000       0x72 build/stm32h7xx_hal_tim_ex.o
 .text.HAL_TIMEx_OnePulseN_Start_IT
                0x0000000000000000       0x90 build/stm32h7xx_hal_tim_ex.o
 .text.HAL_TIMEx_OnePulseN_Stop_IT
                0x0000000000000000       0x86 build/stm32h7xx_hal_tim_ex.o
 .text.HAL_TIMEx_ConfigCommutEvent
                0x0000000000000000       0x94 build/stm32h7xx_hal_tim_ex.o
 .text.HAL_TIMEx_ConfigCommutEvent_IT
                0x0000000000000000       0x94 build/stm32h7xx_hal_tim_ex.o
 .text.HAL_TIMEx_ConfigCommutEvent_DMA
                0x0000000000000000       0xb0 build/stm32h7xx_hal_tim_ex.o
 .text.HAL_TIMEx_MasterConfigSynchronization
                0x0000000000000000       0xb0 build/stm32h7xx_hal_tim_ex.o
 .text.HAL_TIMEx_ConfigBreakDeadTime
                0x0000000000000000       0xa8 build/stm32h7xx_hal_tim_ex.o
 .text.HAL_TIMEx_ConfigBreakInput
                0x0000000000000000       0xd2 build/stm32h7xx_hal_tim_ex.o
 .text.HAL_TIMEx_RemapConfig
                0x0000000000000000       0x28 build/stm32h7xx_hal_tim_ex.o
 .text.HAL_TIMEx_TISelection
                0x0000000000000000       0x74 build/stm32h7xx_hal_tim_ex.o
 .text.HAL_TIMEx_GroupChannel5
                0x0000000000000000       0x3e build/stm32h7xx_hal_tim_ex.o
 .text.HAL_TIMEx_DisarmBreakInput
                0x0000000000000000       0x50 build/stm32h7xx_hal_tim_ex.o
 .text.HAL_TIMEx_ReArmBreakInput
                0x0000000000000000       0x84 build/stm32h7xx_hal_tim_ex.o
 .text.TIMEx_DMACommutationCplt
                0x0000000000000000       0x10 build/stm32h7xx_hal_tim_ex.o
 .text.HAL_TIMEx_CommutHalfCpltCallback
                0x0000000000000000        0x2 build/stm32h7xx_hal_tim_ex.o
 .text.TIMEx_DMACommutationHalfCplt
                0x0000000000000000       0x10 build/stm32h7xx_hal_tim_ex.o
 .text.HAL_TIMEx_HallSensor_GetState
                0x0000000000000000        0x6 build/stm32h7xx_hal_tim_ex.o
 .text.HAL_TIMEx_GetChannelNState
                0x0000000000000000       0x2a build/stm32h7xx_hal_tim_ex.o
 .text          0x0000000000000000        0x0 build/system_stm32h7xx.o
 .data          0x0000000000000000        0x0 build/system_stm32h7xx.o
 .bss           0x0000000000000000        0x0 build/system_stm32h7xx.o
 .text.SystemCoreClockUpdate
                0x0000000000000000      0x214 build/system_stm32h7xx.o
 .text          0x0000000000000000        0x0 build/croutine.o
 .data          0x0000000000000000        0x0 build/croutine.o
 .bss           0x0000000000000000        0x0 build/croutine.o
 .debug_info    0x0000000000000000       0x72 build/croutine.o
 .debug_abbrev  0x0000000000000000       0x26 build/croutine.o
 .debug_aranges
                0x0000000000000000       0x18 build/croutine.o
 .debug_line    0x0000000000000000       0x1d build/croutine.o
 .debug_str     0x0000000000000000      0x18f build/croutine.o
 .comment       0x0000000000000000       0x34 build/croutine.o
 .ARM.attributes
                0x0000000000000000       0x37 build/croutine.o
 .text          0x0000000000000000        0x0 build/event_groups.o
 .data          0x0000000000000000        0x0 build/event_groups.o
 .bss           0x0000000000000000        0x0 build/event_groups.o
 .text.prvTestWaitCondition
                0x0000000000000000       0x1c build/event_groups.o
 .text.xEventGroupCreateStatic
                0x0000000000000000       0x4a build/event_groups.o
 .text.xEventGroupCreate
                0x0000000000000000       0x1c build/event_groups.o
 .text.xEventGroupWaitBits
                0x0000000000000000      0x108 build/event_groups.o
 .text.xEventGroupClearBits
                0x0000000000000000       0x46 build/event_groups.o
 .text.vEventGroupClearBitsCallback
                0x0000000000000000        0x8 build/event_groups.o
 .text.xEventGroupClearBitsFromISR
                0x0000000000000000       0x14 build/event_groups.o
 .text.xEventGroupGetBitsFromISR
                0x0000000000000000       0x1c build/event_groups.o
 .text.xEventGroupSetBits
                0x0000000000000000       0x8c build/event_groups.o
 .text.xEventGroupSync
                0x0000000000000000       0xd8 build/event_groups.o
 .text.vEventGroupSetBitsCallback
                0x0000000000000000        0x8 build/event_groups.o
 .text.vEventGroupDelete
                0x0000000000000000       0x44 build/event_groups.o
 .text.xEventGroupSetBitsFromISR
                0x0000000000000000       0x14 build/event_groups.o
 .text.uxEventGroupGetNumber
                0x0000000000000000        0xa build/event_groups.o
 .text.vEventGroupSetNumber
                0x0000000000000000        0x4 build/event_groups.o
 .debug_info    0x0000000000000000      0xff6 build/event_groups.o
 .debug_abbrev  0x0000000000000000      0x2ff build/event_groups.o
 .debug_loc     0x0000000000000000      0xd00 build/event_groups.o
 .debug_aranges
                0x0000000000000000       0x90 build/event_groups.o
 .debug_ranges  0x0000000000000000       0xb8 build/event_groups.o
 .debug_line    0x0000000000000000      0xa21 build/event_groups.o
 .debug_str     0x0000000000000000      0x7e1 build/event_groups.o
 .comment       0x0000000000000000       0x34 build/event_groups.o
 .debug_frame   0x0000000000000000      0x1a8 build/event_groups.o
 .ARM.attributes
                0x0000000000000000       0x32 build/event_groups.o
 .text          0x0000000000000000        0x0 build/list.o
 .data          0x0000000000000000        0x0 build/list.o
 .bss           0x0000000000000000        0x0 build/list.o
 .text          0x0000000000000000        0x0 build/queue.o
 .data          0x0000000000000000        0x0 build/queue.o
 .bss           0x0000000000000000        0x0 build/queue.o
 .text.prvGetDisinheritPriorityAfterTimeout
                0x0000000000000000       0x10 build/queue.o
 .text.xQueueGenericCreate
                0x0000000000000000       0x48 build/queue.o
 .text.xQueueGetMutexHolder
                0x0000000000000000       0x1a build/queue.o
 .text.xQueueGetMutexHolderFromISR
                0x0000000000000000       0x20 build/queue.o
 .text.xQueueCreateCountingSemaphoreStatic
                0x0000000000000000       0x46 build/queue.o
 .text.xQueueCreateCountingSemaphore
                0x0000000000000000       0x3c build/queue.o
 .text.prvInitialiseMutex
                0x0000000000000000       0x18 build/queue.o
 .text.xQueueCreateMutex
                0x0000000000000000       0x16 build/queue.o
 .text.xQueueCreateMutexStatic
                0x0000000000000000       0x1e build/queue.o
 .text.xQueueGiveMutexRecursive
                0x0000000000000000       0x40 build/queue.o
 .text.xQueueGiveFromISR
                0x0000000000000000       0xb2 build/queue.o
 .text.xQueueSemaphoreTake
                0x0000000000000000      0x1a6 build/queue.o
 .text.xQueueTakeMutexRecursive
                0x0000000000000000       0x40 build/queue.o
 .text.xQueuePeek
                0x0000000000000000      0x15e build/queue.o
 .text.xQueueReceiveFromISR
                0x0000000000000000       0xa8 build/queue.o
 .text.xQueuePeekFromISR
                0x0000000000000000       0x7e build/queue.o
 .text.uxQueueMessagesWaiting
                0x0000000000000000       0x26 build/queue.o
 .text.uxQueueSpacesAvailable
                0x0000000000000000       0x2a build/queue.o
 .text.uxQueueMessagesWaitingFromISR
                0x0000000000000000       0x18 build/queue.o
 .text.uxQueueGetQueueNumber
                0x0000000000000000        0x4 build/queue.o
 .text.vQueueSetQueueNumber
                0x0000000000000000        0x4 build/queue.o
 .text.ucQueueGetQueueType
                0x0000000000000000        0x6 build/queue.o
 .text.xQueueIsQueueEmptyFromISR
                0x0000000000000000       0x20 build/queue.o
 .text.xQueueIsQueueFullFromISR
                0x0000000000000000       0x24 build/queue.o
 .text.pcQueueGetName
                0x0000000000000000       0x28 build/queue.o
 .text.vQueueUnregisterQueue
                0x0000000000000000       0x2c build/queue.o
 .text.vQueueDelete
                0x0000000000000000       0x2c build/queue.o
 .text          0x0000000000000000        0x0 build/stream_buffer.o
 .data          0x0000000000000000        0x0 build/stream_buffer.o
 .bss           0x0000000000000000        0x0 build/stream_buffer.o
 .text.prvBytesInBuffer
                0x0000000000000000       0x12 build/stream_buffer.o
 .text.prvInitialiseNewStreamBuffer
                0x0000000000000000       0x40 build/stream_buffer.o
 .text.prvWriteBytesToBuffer
                0x0000000000000000       0x8c build/stream_buffer.o
 .text.prvWriteMessageToBuffer
                0x0000000000000000       0x44 build/stream_buffer.o
 .text.prvReadBytesFromBuffer
                0x0000000000000000       0x9c build/stream_buffer.o
 .text.prvReadMessageFromBuffer
                0x0000000000000000       0x4c build/stream_buffer.o
 .text.xStreamBufferGenericCreate
                0x0000000000000000       0x74 build/stream_buffer.o
 .text.xStreamBufferGenericCreateStatic
                0x0000000000000000       0xa6 build/stream_buffer.o
 .text.vStreamBufferDelete
                0x0000000000000000       0x2e build/stream_buffer.o
 .text.xStreamBufferReset
                0x0000000000000000       0x4e build/stream_buffer.o
 .text.xStreamBufferSetTriggerLevel
                0x0000000000000000       0x2a build/stream_buffer.o
 .text.xStreamBufferSpacesAvailable
                0x0000000000000000       0x2a build/stream_buffer.o
 .text.xStreamBufferBytesAvailable
                0x0000000000000000       0x1c build/stream_buffer.o
 .text.xStreamBufferSend
                0x0000000000000000      0x108 build/stream_buffer.o
 .text.xStreamBufferSendFromISR
                0x0000000000000000       0xa4 build/stream_buffer.o
 .text.xStreamBufferReceive
                0x0000000000000000       0xea build/stream_buffer.o
 .text.xStreamBufferNextMessageLengthBytes
                0x0000000000000000       0x5c build/stream_buffer.o
 .text.xStreamBufferReceiveFromISR
                0x0000000000000000       0xa2 build/stream_buffer.o
 .text.xStreamBufferIsEmpty
                0x0000000000000000       0x24 build/stream_buffer.o
 .text.xStreamBufferIsFull
                0x0000000000000000       0x38 build/stream_buffer.o
 .text.xStreamBufferSendCompletedFromISR
                0x0000000000000000       0x52 build/stream_buffer.o
 .text.xStreamBufferReceiveCompletedFromISR
                0x0000000000000000       0x52 build/stream_buffer.o
 .text.uxStreamBufferGetStreamBufferNumber
                0x0000000000000000        0x4 build/stream_buffer.o
 .text.vStreamBufferSetStreamBufferNumber
                0x0000000000000000        0x4 build/stream_buffer.o
 .text.ucStreamBufferGetStreamBufferType
                0x0000000000000000        0x8 build/stream_buffer.o
 .debug_info    0x0000000000000000     0x1ca3 build/stream_buffer.o
 .debug_abbrev  0x0000000000000000      0x36e build/stream_buffer.o
 .debug_loc     0x0000000000000000     0x1d4a build/stream_buffer.o
 .debug_aranges
                0x0000000000000000       0xe0 build/stream_buffer.o
 .debug_ranges  0x0000000000000000       0xd0 build/stream_buffer.o
 .debug_line    0x0000000000000000     0x14d8 build/stream_buffer.o
 .debug_str     0x0000000000000000      0x993 build/stream_buffer.o
 .comment       0x0000000000000000       0x34 build/stream_buffer.o
 .debug_frame   0x0000000000000000      0x384 build/stream_buffer.o
 .ARM.attributes
                0x0000000000000000       0x32 build/stream_buffer.o
 .text          0x0000000000000000        0x0 build/tasks.o
 .data          0x0000000000000000        0x0 build/tasks.o
 .bss           0x0000000000000000        0x0 build/tasks.o
 .text.prvTaskIsTaskSuspended
                0x0000000000000000       0x40 build/tasks.o
 .text.prvTaskCheckFreeStackSpace
                0x0000000000000000       0x14 build/tasks.o
 .text.vTaskDelete
                0x0000000000000000       0xb8 build/tasks.o
 .text.eTaskGetState
                0x0000000000000000       0x8c build/tasks.o
 .text.uxTaskPriorityGet
                0x0000000000000000       0x20 build/tasks.o
 .text.uxTaskPriorityGetFromISR
                0x0000000000000000       0x30 build/tasks.o
 .text.vTaskPrioritySet
                0x0000000000000000       0xd4 build/tasks.o
 .text.vTaskResume
                0x0000000000000000       0x88 build/tasks.o
 .text.xTaskResumeFromISR
                0x0000000000000000       0xa4 build/tasks.o
 .text.vTaskEndScheduler
                0x0000000000000000       0x24 build/tasks.o
 .text.xTaskGetTickCountFromISR
                0x0000000000000000       0x10 build/tasks.o
 .text.uxTaskGetNumberOfTasks
                0x0000000000000000        0xc build/tasks.o
 .text.pcTaskGetName
                0x0000000000000000       0x28 build/tasks.o
 .text.vTaskDelayUntil
                0x0000000000000000       0xa4 build/tasks.o
 .text.xTaskCatchUpTicks
                0x0000000000000000       0x38 build/tasks.o
 .text.vTaskSuspend
                0x0000000000000000       0xc4 build/tasks.o
 .text.vTaskPlaceOnUnorderedEventList
                0x0000000000000000       0x58 build/tasks.o
 .text.vTaskRemoveFromUnorderedEventList
                0x0000000000000000       0x88 build/tasks.o
 .text.vTaskSetTimeOutState
                0x0000000000000000       0x38 build/tasks.o
 .text.uxTaskGetTaskNumber
                0x0000000000000000        0xa build/tasks.o
 .text.vTaskSetTaskNumber
                0x0000000000000000        0x6 build/tasks.o
 .text.vTaskGetInfo
                0x0000000000000000       0x78 build/tasks.o
 .text.prvListTasksWithinSingleList
                0x0000000000000000       0x5e build/tasks.o
 .text.uxTaskGetSystemState
                0x0000000000000000       0xb0 build/tasks.o
 .text.uxTaskGetStackHighWaterMark
                0x0000000000000000       0x18 build/tasks.o
 .text.xTaskGetCurrentTaskHandle
                0x0000000000000000        0xc build/tasks.o
 .text.xTaskPriorityInherit
                0x0000000000000000       0x98 build/tasks.o
 .text.vTaskPriorityDisinheritAfterTimeout
                0x0000000000000000       0xa0 build/tasks.o
 .text.uxTaskResetEventItemValue
                0x0000000000000000       0x18 build/tasks.o
 .text.pvTaskIncrementMutexHeldCount
                0x0000000000000000       0x1c build/tasks.o
 .text.ulTaskNotifyTake
                0x0000000000000000       0x78 build/tasks.o
 .text.xTaskNotifyWait
                0x0000000000000000       0x98 build/tasks.o
 .text.xTaskGenericNotify
                0x0000000000000000      0x100 build/tasks.o
 .text.xTaskGenericNotifyFromISR
                0x0000000000000000      0x134 build/tasks.o
 .text.vTaskNotifyGiveFromISR
                0x0000000000000000       0xd0 build/tasks.o
 .text.xTaskNotifyStateClear
                0x0000000000000000       0x34 build/tasks.o
 .text.ulTaskNotifyValueClear
                0x0000000000000000       0x2c build/tasks.o
 .text          0x0000000000000000        0x0 build/timers.o
 .data          0x0000000000000000        0x0 build/timers.o
 .bss           0x0000000000000000        0x0 build/timers.o
 .text.prvInitialiseNewTimer
                0x0000000000000000       0x4c build/timers.o
 .text.xTimerCreate
                0x0000000000000000       0x38 build/timers.o
 .text.xTimerCreateStatic
                0x0000000000000000       0x54 build/timers.o
 .text.xTimerGetTimerDaemonTaskHandle
                0x0000000000000000       0x20 build/timers.o
 .text.xTimerGetPeriod
                0x0000000000000000       0x18 build/timers.o
 .text.vTimerSetReloadMode
                0x0000000000000000       0x40 build/timers.o
 .text.uxTimerGetReloadMode
                0x0000000000000000       0x34 build/timers.o
 .text.xTimerGetExpiryTime
                0x0000000000000000       0x18 build/timers.o
 .text.pcTimerGetName
                0x0000000000000000       0x18 build/timers.o
 .text.xTimerIsTimerActive
                0x0000000000000000       0x34 build/timers.o
 .text.pvTimerGetTimerID
                0x0000000000000000       0x26 build/timers.o
 .text.vTimerSetTimerID
                0x0000000000000000       0x26 build/timers.o
 .text.xTimerPendFunctionCallFromISR
                0x0000000000000000       0x28 build/timers.o
 .text.xTimerPendFunctionCall
                0x0000000000000000       0x40 build/timers.o
 .text.uxTimerGetTimerNumber
                0x0000000000000000        0x4 build/timers.o
 .text.vTimerSetTimerNumber
                0x0000000000000000        0x4 build/timers.o
 .text          0x0000000000000000        0x0 build/cmsis_os2.o
 .data          0x0000000000000000        0x0 build/cmsis_os2.o
 .bss           0x0000000000000000        0x0 build/cmsis_os2.o
 .text.OS_Tick_GetCount
                0x0000000000000000        0xc build/cmsis_os2.o
 .text.OS_Tick_GetOverflow
                0x0000000000000000        0xc build/cmsis_os2.o
 .text.OS_Tick_GetInterval
                0x0000000000000000        0xa build/cmsis_os2.o
 .text.CreateBlock
                0x0000000000000000       0x1c build/cmsis_os2.o
 .text.AllocBlock
                0x0000000000000000        0xc build/cmsis_os2.o
 .text.FreeBlock
                0x0000000000000000        0x8 build/cmsis_os2.o
 .text.TimerCallback
                0x0000000000000000       0x10 build/cmsis_os2.o
 .rodata.osKernelGetInfo.str1.4
                0x0000000000000000       0x11 build/cmsis_os2.o
 .text.osKernelGetInfo
                0x0000000000000000       0x30 build/cmsis_os2.o
 .text.osKernelGetState
                0x0000000000000000       0x24 build/cmsis_os2.o
 .text.osKernelLock
                0x0000000000000000       0x2a build/cmsis_os2.o
 .text.osKernelUnlock
                0x0000000000000000       0x3a build/cmsis_os2.o
 .text.osKernelRestoreLock
                0x0000000000000000       0x4c build/cmsis_os2.o
 .text.osKernelGetTickCount
                0x0000000000000000       0x14 build/cmsis_os2.o
 .text.osKernelGetTickFreq
                0x0000000000000000        0x6 build/cmsis_os2.o
 .text.osKernelGetSysTimerCount
                0x0000000000000000       0x44 build/cmsis_os2.o
 .text.osKernelGetSysTimerFreq
                0x0000000000000000        0xc build/cmsis_os2.o
 .text.osThreadGetName
                0x0000000000000000       0x14 build/cmsis_os2.o
 .text.osThreadGetId
                0x0000000000000000        0x8 build/cmsis_os2.o
 .text.osThreadGetState
                0x0000000000000000       0x3e build/cmsis_os2.o
 .text.osThreadGetStackSpace
                0x0000000000000000       0x1a build/cmsis_os2.o
 .text.osThreadSetPriority
                0x0000000000000000       0x2e build/cmsis_os2.o
 .text.osThreadGetPriority
                0x0000000000000000       0x1c build/cmsis_os2.o
 .text.osThreadYield
                0x0000000000000000       0x24 build/cmsis_os2.o
 .text.osThreadSuspend
                0x0000000000000000       0x1e build/cmsis_os2.o
 .text.osThreadResume
                0x0000000000000000       0x1e build/cmsis_os2.o
 .text.osThreadExit
                0x0000000000000000        0xa build/cmsis_os2.o
 .text.osThreadTerminate
                0x0000000000000000       0x30 build/cmsis_os2.o
 .text.osThreadGetCount
                0x0000000000000000       0x12 build/cmsis_os2.o
 .text.osThreadEnumerate
                0x0000000000000000       0x6c build/cmsis_os2.o
 .text.osThreadFlagsSet
                0x0000000000000000       0x7a build/cmsis_os2.o
 .text.osThreadFlagsClear
                0x0000000000000000       0x56 build/cmsis_os2.o
 .text.osThreadFlagsGet
                0x0000000000000000       0x32 build/cmsis_os2.o
 .text.osThreadFlagsWait
                0x0000000000000000       0xaa build/cmsis_os2.o
 .text.osDelayUntil
                0x0000000000000000       0x30 build/cmsis_os2.o
 .text.osTimerNew
                0x0000000000000000       0xa8 build/cmsis_os2.o
 .text.osTimerGetName
                0x0000000000000000       0x14 build/cmsis_os2.o
 .text.osTimerStart
                0x0000000000000000       0x34 build/cmsis_os2.o
 .text.osTimerStop
                0x0000000000000000       0x44 build/cmsis_os2.o
 .text.osTimerIsRunning
                0x0000000000000000       0x18 build/cmsis_os2.o
 .text.osTimerDelete
                0x0000000000000000       0x44 build/cmsis_os2.o
 .text.osEventFlagsNew
                0x0000000000000000       0x44 build/cmsis_os2.o
 .text.osEventFlagsSet
                0x0000000000000000       0x5a build/cmsis_os2.o
 .text.osEventFlagsClear
                0x0000000000000000       0x40 build/cmsis_os2.o
 .text.osEventFlagsGet
                0x0000000000000000       0x1c build/cmsis_os2.o
 .text.osEventFlagsWait
                0x0000000000000000       0x76 build/cmsis_os2.o
 .text.osEventFlagsDelete
                0x0000000000000000       0x1e build/cmsis_os2.o
 .text.osMutexNew
                0x0000000000000000       0x9c build/cmsis_os2.o
 .text.osMutexAcquire
                0x0000000000000000       0x58 build/cmsis_os2.o
 .text.osMutexRelease
                0x0000000000000000       0x4c build/cmsis_os2.o
 .text.osMutexGetOwner
                0x0000000000000000       0x1c build/cmsis_os2.o
 .text.osMutexDelete
                0x0000000000000000       0x2a build/cmsis_os2.o
 .text.osSemaphoreNew
                0x0000000000000000       0xb8 build/cmsis_os2.o
 .text.osSemaphoreAcquire
                0x0000000000000000       0x68 build/cmsis_os2.o
 .text.osSemaphoreRelease
                0x0000000000000000       0x5e build/cmsis_os2.o
 .text.osSemaphoreGetCount
                0x0000000000000000       0x1a build/cmsis_os2.o
 .text.osSemaphoreDelete
                0x0000000000000000       0x26 build/cmsis_os2.o
 .text.osMessageQueueNew
                0x0000000000000000       0x98 build/cmsis_os2.o
 .text.osMessageQueuePut
                0x0000000000000000       0x80 build/cmsis_os2.o
 .text.osMessageQueueGet
                0x0000000000000000       0x7e build/cmsis_os2.o
 .text.osMessageQueueGetCapacity
                0x0000000000000000        0xa build/cmsis_os2.o
 .text.osMessageQueueGetMsgSize
                0x0000000000000000        0xa build/cmsis_os2.o
 .text.osMessageQueueGetCount
                0x0000000000000000       0x1a build/cmsis_os2.o
 .text.osMessageQueueGetSpace
                0x0000000000000000       0x34 build/cmsis_os2.o
 .text.osMessageQueueReset
                0x0000000000000000       0x20 build/cmsis_os2.o
 .text.osMessageQueueDelete
                0x0000000000000000       0x26 build/cmsis_os2.o
 .text.osMemoryPoolNew
                0x0000000000000000      0x134 build/cmsis_os2.o
 .text.osMemoryPoolGetName
                0x0000000000000000       0x10 build/cmsis_os2.o
 .text.osMemoryPoolAlloc
                0x0000000000000000       0xb0 build/cmsis_os2.o
 .text.osMemoryPoolFree
                0x0000000000000000       0xd8 build/cmsis_os2.o
 .text.osMemoryPoolGetCapacity
                0x0000000000000000       0x1c build/cmsis_os2.o
 .text.osMemoryPoolGetBlockSize
                0x0000000000000000       0x1c build/cmsis_os2.o
 .text.osMemoryPoolGetCount
                0x0000000000000000       0x34 build/cmsis_os2.o
 .text.osMemoryPoolGetSpace
                0x0000000000000000       0x30 build/cmsis_os2.o
 .text.osMemoryPoolDelete
                0x0000000000000000       0x64 build/cmsis_os2.o
 .text          0x0000000000000000        0x0 build/heap_4.o
 .data          0x0000000000000000        0x0 build/heap_4.o
 .bss           0x0000000000000000        0x0 build/heap_4.o
 .text.xPortGetFreeHeapSize
                0x0000000000000000        0xc build/heap_4.o
 .text.xPortGetMinimumEverFreeHeapSize
                0x0000000000000000        0xc build/heap_4.o
 .text.vPortInitialiseBlocks
                0x0000000000000000        0x2 build/heap_4.o
 .text.vPortGetHeapStats
                0x0000000000000000       0x80 build/heap_4.o
 .text          0x0000000000000000        0x0 build/port.o
 .data          0x0000000000000000        0x0 build/port.o
 .bss           0x0000000000000000        0x0 build/port.o
 .text.vPortEndScheduler
                0x0000000000000000       0x24 build/port.o
 .text          0x0000000000000000        0x0 build/LED.o
 .data          0x0000000000000000        0x0 build/LED.o
 .bss           0x0000000000000000        0x0 build/LED.o
 .ARM.extab.text._ZN8STM32LED3LEDC2EP12GPIO_TypeDeft
                0x0000000000000000        0x0 build/LED.o
 .text._ZN8STM32LED3LED3setENS_5stateE
                0x0000000000000000       0x1e build/LED.o
 .ARM.extab.text._ZN8STM32LED3LED3setENS_5stateE
                0x0000000000000000        0xc build/LED.o
 .ARM.exidx.text._ZN8STM32LED3LED3setENS_5stateE
                0x0000000000000000        0x8 build/LED.o
 .text          0x0000000000000000        0x0 build/main.o
 .data          0x0000000000000000        0x0 build/main.o
 .bss           0x0000000000000000        0x0 build/main.o
 .ARM.extab.text._ZL12MX_GPIO_Initv
                0x0000000000000000        0x0 build/main.o
 .ARM.extab.text.Error_Handler
                0x0000000000000000        0x0 build/main.o
 .ARM.extab.text._Z18SystemClock_Configv
                0x0000000000000000        0x0 build/main.o
 .text          0x0000000000000000       0x14 build/startup_stm32h733xx.o
 .data          0x0000000000000000        0x0 build/startup_stm32h733xx.o
 .bss           0x0000000000000000        0x0 build/startup_stm32h733xx.o
 .text          0x0000000000000000        0x0 /usr/lib/gcc/arm-none-eabi/10.3.1/../../../arm-none-eabi/lib/thumb/v7e-m+dp/hard/libstdc++.a(del_ops.o)
 .data          0x0000000000000000        0x0 /usr/lib/gcc/arm-none-eabi/10.3.1/../../../arm-none-eabi/lib/thumb/v7e-m+dp/hard/libstdc++.a(del_ops.o)
 .bss           0x0000000000000000        0x0 /usr/lib/gcc/arm-none-eabi/10.3.1/../../../arm-none-eabi/lib/thumb/v7e-m+dp/hard/libstdc++.a(del_ops.o)
 .ARM.extab.text._ZdlPvj
                0x0000000000000000        0x0 /usr/lib/gcc/arm-none-eabi/10.3.1/../../../arm-none-eabi/lib/thumb/v7e-m+dp/hard/libstdc++.a(del_ops.o)
 .text          0x0000000000000000        0x0 /usr/lib/gcc/arm-none-eabi/10.3.1/../../../arm-none-eabi/lib/thumb/v7e-m+dp/hard/libstdc++.a(eh_arm.o)
 .data          0x0000000000000000        0x0 /usr/lib/gcc/arm-none-eabi/10.3.1/../../../arm-none-eabi/lib/thumb/v7e-m+dp/hard/libstdc++.a(eh_arm.o)
 .bss           0x0000000000000000        0x0 /usr/lib/gcc/arm-none-eabi/10.3.1/../../../arm-none-eabi/lib/thumb/v7e-m+dp/hard/libstdc++.a(eh_arm.o)
 .ARM.extab.text.__cxa_type_match
                0x0000000000000000        0x0 /usr/lib/gcc/arm-none-eabi/10.3.1/../../../arm-none-eabi/lib/thumb/v7e-m+dp/hard/libstdc++.a(eh_arm.o)
 .ARM.extab.text.__cxa_begin_cleanup
                0x0000000000000000        0x0 /usr/lib/gcc/arm-none-eabi/10.3.1/../../../arm-none-eabi/lib/thumb/v7e-m+dp/hard/libstdc++.a(eh_arm.o)
 .ARM.extab.text.__gnu_end_cleanup
                0x0000000000000000        0x0 /usr/lib/gcc/arm-none-eabi/10.3.1/../../../arm-none-eabi/lib/thumb/v7e-m+dp/hard/libstdc++.a(eh_arm.o)
 .text          0x0000000000000000        0x0 /usr/lib/gcc/arm-none-eabi/10.3.1/../../../arm-none-eabi/lib/thumb/v7e-m+dp/hard/libstdc++.a(eh_exception.o)
 .data          0x0000000000000000        0x0 /usr/lib/gcc/arm-none-eabi/10.3.1/../../../arm-none-eabi/lib/thumb/v7e-m+dp/hard/libstdc++.a(eh_exception.o)
 .bss           0x0000000000000000        0x0 /usr/lib/gcc/arm-none-eabi/10.3.1/../../../arm-none-eabi/lib/thumb/v7e-m+dp/hard/libstdc++.a(eh_exception.o)
 .ARM.extab.text._ZNSt9exceptionD2Ev
                0x0000000000000000        0x0 /usr/lib/gcc/arm-none-eabi/10.3.1/../../../arm-none-eabi/lib/thumb/v7e-m+dp/hard/libstdc++.a(eh_exception.o)
 .ARM.extab.text._ZNSt13bad_exceptionD2Ev
                0x0000000000000000        0x0 /usr/lib/gcc/arm-none-eabi/10.3.1/../../../arm-none-eabi/lib/thumb/v7e-m+dp/hard/libstdc++.a(eh_exception.o)
 .rodata._ZNKSt9exception4whatEv.str1.4
                0x0000000000000000        0xf /usr/lib/gcc/arm-none-eabi/10.3.1/../../../arm-none-eabi/lib/thumb/v7e-m+dp/hard/libstdc++.a(eh_exception.o)
 .text._ZNKSt9exception4whatEv
                0x0000000000000000        0x8 /usr/lib/gcc/arm-none-eabi/10.3.1/../../../arm-none-eabi/lib/thumb/v7e-m+dp/hard/libstdc++.a(eh_exception.o)
 .ARM.extab.text._ZNKSt9exception4whatEv
                0x0000000000000000        0x0 /usr/lib/gcc/arm-none-eabi/10.3.1/../../../arm-none-eabi/lib/thumb/v7e-m+dp/hard/libstdc++.a(eh_exception.o)
 .ARM.exidx.text._ZNKSt9exception4whatEv
                0x0000000000000000        0x8 /usr/lib/gcc/arm-none-eabi/10.3.1/../../../arm-none-eabi/lib/thumb/v7e-m+dp/hard/libstdc++.a(eh_exception.o)
 .ARM.extab.text._ZNKSt13bad_exception4whatEv
                0x0000000000000000        0x0 /usr/lib/gcc/arm-none-eabi/10.3.1/../../../arm-none-eabi/lib/thumb/v7e-m+dp/hard/libstdc++.a(eh_exception.o)
 .text._ZNSt9exceptionD0Ev
                0x0000000000000000       0x10 /usr/lib/gcc/arm-none-eabi/10.3.1/../../../arm-none-eabi/lib/thumb/v7e-m+dp/hard/libstdc++.a(eh_exception.o)
 .ARM.extab.text._ZNSt9exceptionD0Ev
                0x0000000000000000        0x0 /usr/lib/gcc/arm-none-eabi/10.3.1/../../../arm-none-eabi/lib/thumb/v7e-m+dp/hard/libstdc++.a(eh_exception.o)
 .ARM.exidx.text._ZNSt9exceptionD0Ev
                0x0000000000000000        0x8 /usr/lib/gcc/arm-none-eabi/10.3.1/../../../arm-none-eabi/lib/thumb/v7e-m+dp/hard/libstdc++.a(eh_exception.o)
 .ARM.extab.text._ZNSt13bad_exceptionD0Ev
                0x0000000000000000        0x0 /usr/lib/gcc/arm-none-eabi/10.3.1/../../../arm-none-eabi/lib/thumb/v7e-m+dp/hard/libstdc++.a(eh_exception.o)
 .text._ZN10__cxxabiv115__forced_unwindD2Ev
                0x0000000000000000        0x4 /usr/lib/gcc/arm-none-eabi/10.3.1/../../../arm-none-eabi/lib/thumb/v7e-m+dp/hard/libstdc++.a(eh_exception.o)
 .ARM.extab.text._ZN10__cxxabiv115__forced_unwindD2Ev
                0x0000000000000000        0x0 /usr/lib/gcc/arm-none-eabi/10.3.1/../../../arm-none-eabi/lib/thumb/v7e-m+dp/hard/libstdc++.a(eh_exception.o)
 .ARM.exidx.text._ZN10__cxxabiv115__forced_unwindD2Ev
                0x0000000000000000        0x8 /usr/lib/gcc/arm-none-eabi/10.3.1/../../../arm-none-eabi/lib/thumb/v7e-m+dp/hard/libstdc++.a(eh_exception.o)
 .text._ZN10__cxxabiv115__forced_unwindD0Ev
                0x0000000000000000       0x10 /usr/lib/gcc/arm-none-eabi/10.3.1/../../../arm-none-eabi/lib/thumb/v7e-m+dp/hard/libstdc++.a(eh_exception.o)
 .ARM.extab.text._ZN10__cxxabiv115__forced_unwindD0Ev
                0x0000000000000000        0x0 /usr/lib/gcc/arm-none-eabi/10.3.1/../../../arm-none-eabi/lib/thumb/v7e-m+dp/hard/libstdc++.a(eh_exception.o)
 .ARM.exidx.text._ZN10__cxxabiv115__forced_unwindD0Ev
                0x0000000000000000        0x8 /usr/lib/gcc/arm-none-eabi/10.3.1/../../../arm-none-eabi/lib/thumb/v7e-m+dp/hard/libstdc++.a(eh_exception.o)
 .text._ZN10__cxxabiv119__foreign_exceptionD2Ev
                0x0000000000000000        0x4 /usr/lib/gcc/arm-none-eabi/10.3.1/../../../arm-none-eabi/lib/thumb/v7e-m+dp/hard/libstdc++.a(eh_exception.o)
 .ARM.extab.text._ZN10__cxxabiv119__foreign_exceptionD2Ev
                0x0000000000000000        0x0 /usr/lib/gcc/arm-none-eabi/10.3.1/../../../arm-none-eabi/lib/thumb/v7e-m+dp/hard/libstdc++.a(eh_exception.o)
 .ARM.exidx.text._ZN10__cxxabiv119__foreign_exceptionD2Ev
                0x0000000000000000        0x8 /usr/lib/gcc/arm-none-eabi/10.3.1/../../../arm-none-eabi/lib/thumb/v7e-m+dp/hard/libstdc++.a(eh_exception.o)
 .text._ZN10__cxxabiv119__foreign_exceptionD0Ev
                0x0000000000000000       0x10 /usr/lib/gcc/arm-none-eabi/10.3.1/../../../arm-none-eabi/lib/thumb/v7e-m+dp/hard/libstdc++.a(eh_exception.o)
 .ARM.extab.text._ZN10__cxxabiv119__foreign_exceptionD0Ev
                0x0000000000000000        0x0 /usr/lib/gcc/arm-none-eabi/10.3.1/../../../arm-none-eabi/lib/thumb/v7e-m+dp/hard/libstdc++.a(eh_exception.o)
 .ARM.exidx.text._ZN10__cxxabiv119__foreign_exceptionD0Ev
                0x0000000000000000        0x8 /usr/lib/gcc/arm-none-eabi/10.3.1/../../../arm-none-eabi/lib/thumb/v7e-m+dp/hard/libstdc++.a(eh_exception.o)
 .text._ZGTtNKSt9exceptionD1Ev
                0x0000000000000000        0x4 /usr/lib/gcc/arm-none-eabi/10.3.1/../../../arm-none-eabi/lib/thumb/v7e-m+dp/hard/libstdc++.a(eh_exception.o)
 .ARM.extab.text._ZGTtNKSt9exceptionD1Ev
                0x0000000000000000        0x0 /usr/lib/gcc/arm-none-eabi/10.3.1/../../../arm-none-eabi/lib/thumb/v7e-m+dp/hard/libstdc++.a(eh_exception.o)
 .ARM.exidx.text._ZGTtNKSt9exceptionD1Ev
                0x0000000000000000        0x8 /usr/lib/gcc/arm-none-eabi/10.3.1/../../../arm-none-eabi/lib/thumb/v7e-m+dp/hard/libstdc++.a(eh_exception.o)
 .text._ZGTtNKSt13bad_exceptionD1Ev
                0x0000000000000000        0x4 /usr/lib/gcc/arm-none-eabi/10.3.1/../../../arm-none-eabi/lib/thumb/v7e-m+dp/hard/libstdc++.a(eh_exception.o)
 .ARM.extab.text._ZGTtNKSt13bad_exceptionD1Ev
                0x0000000000000000        0x0 /usr/lib/gcc/arm-none-eabi/10.3.1/../../../arm-none-eabi/lib/thumb/v7e-m+dp/hard/libstdc++.a(eh_exception.o)
 .ARM.exidx.text._ZGTtNKSt13bad_exceptionD1Ev
                0x0000000000000000        0x8 /usr/lib/gcc/arm-none-eabi/10.3.1/../../../arm-none-eabi/lib/thumb/v7e-m+dp/hard/libstdc++.a(eh_exception.o)
 .rodata._ZTVN10__cxxabiv115__forced_unwindE
                0x0000000000000000       0x14 /usr/lib/gcc/arm-none-eabi/10.3.1/../../../arm-none-eabi/lib/thumb/v7e-m+dp/hard/libstdc++.a(eh_exception.o)
 .rodata._ZTVN10__cxxabiv119__foreign_exceptionE
                0x0000000000000000       0x14 /usr/lib/gcc/arm-none-eabi/10.3.1/../../../arm-none-eabi/lib/thumb/v7e-m+dp/hard/libstdc++.a(eh_exception.o)
 .rodata._ZTVSt9exception
                0x0000000000000000       0x14 /usr/lib/gcc/arm-none-eabi/10.3.1/../../../arm-none-eabi/lib/thumb/v7e-m+dp/hard/libstdc++.a(eh_exception.o)
 .text          0x0000000000000000        0x0 /usr/lib/gcc/arm-none-eabi/10.3.1/../../../arm-none-eabi/lib/thumb/v7e-m+dp/hard/libstdc++.a(eh_globals.o)
 .data          0x0000000000000000        0x0 /usr/lib/gcc/arm-none-eabi/10.3.1/../../../arm-none-eabi/lib/thumb/v7e-m+dp/hard/libstdc++.a(eh_globals.o)
 .bss           0x0000000000000000        0x0 /usr/lib/gcc/arm-none-eabi/10.3.1/../../../arm-none-eabi/lib/thumb/v7e-m+dp/hard/libstdc++.a(eh_globals.o)
 .ARM.extab.text.__cxa_get_globals_fast
                0x0000000000000000        0x0 /usr/lib/gcc/arm-none-eabi/10.3.1/../../../arm-none-eabi/lib/thumb/v7e-m+dp/hard/libstdc++.a(eh_globals.o)
 .ARM.extab.text.__cxa_get_globals
                0x0000000000000000        0x0 /usr/lib/gcc/arm-none-eabi/10.3.1/../../../arm-none-eabi/lib/thumb/v7e-m+dp/hard/libstdc++.a(eh_globals.o)
 .text          0x0000000000000000        0x0 /usr/lib/gcc/arm-none-eabi/10.3.1/../../../arm-none-eabi/lib/thumb/v7e-m+dp/hard/libstdc++.a(eh_personality.o)
 .data          0x0000000000000000        0x0 /usr/lib/gcc/arm-none-eabi/10.3.1/../../../arm-none-eabi/lib/thumb/v7e-m+dp/hard/libstdc++.a(eh_personality.o)
 .bss           0x0000000000000000        0x0 /usr/lib/gcc/arm-none-eabi/10.3.1/../../../arm-none-eabi/lib/thumb/v7e-m+dp/hard/libstdc++.a(eh_personality.o)
 .ARM.extab.text._ZL28read_encoded_value_with_basehjPKhPj
                0x0000000000000000        0x0 /usr/lib/gcc/arm-none-eabi/10.3.1/../../../arm-none-eabi/lib/thumb/v7e-m+dp/hard/libstdc++.a(eh_personality.o)
 .ARM.extab.text._ZL17parse_lsda_headerP15_Unwind_ContextPKhP16lsda_header_info
                0x0000000000000000        0x0 /usr/lib/gcc/arm-none-eabi/10.3.1/../../../arm-none-eabi/lib/thumb/v7e-m+dp/hard/libstdc++.a(eh_personality.o)
 .text          0x0000000000000000        0x0 /usr/lib/gcc/arm-none-eabi/10.3.1/../../../arm-none-eabi/lib/thumb/v7e-m+dp/hard/libstdc++.a(eh_terminate.o)
 .data          0x0000000000000000        0x0 /usr/lib/gcc/arm-none-eabi/10.3.1/../../../arm-none-eabi/lib/thumb/v7e-m+dp/hard/libstdc++.a(eh_terminate.o)
 .bss           0x0000000000000000        0x0 /usr/lib/gcc/arm-none-eabi/10.3.1/../../../arm-none-eabi/lib/thumb/v7e-m+dp/hard/libstdc++.a(eh_terminate.o)
 .ARM.extab.text._ZSt9terminatev
                0x0000000000000000        0x0 /usr/lib/gcc/arm-none-eabi/10.3.1/../../../arm-none-eabi/lib/thumb/v7e-m+dp/hard/libstdc++.a(eh_terminate.o)
 .text._ZSt13set_terminatePFvvE
                0x0000000000000000       0x28 /usr/lib/gcc/arm-none-eabi/10.3.1/../../../arm-none-eabi/lib/thumb/v7e-m+dp/hard/libstdc++.a(eh_terminate.o)
 .ARM.extab.text._ZSt13set_terminatePFvvE
                0x0000000000000000        0x0 /usr/lib/gcc/arm-none-eabi/10.3.1/../../../arm-none-eabi/lib/thumb/v7e-m+dp/hard/libstdc++.a(eh_terminate.o)
 .ARM.exidx.text._ZSt13set_terminatePFvvE
                0x0000000000000000        0x8 /usr/lib/gcc/arm-none-eabi/10.3.1/../../../arm-none-eabi/lib/thumb/v7e-m+dp/hard/libstdc++.a(eh_terminate.o)
 .ARM.extab.text._ZSt13get_terminatev
                0x0000000000000000        0x0 /usr/lib/gcc/arm-none-eabi/10.3.1/../../../arm-none-eabi/lib/thumb/v7e-m+dp/hard/libstdc++.a(eh_terminate.o)
 .text._ZSt14set_unexpectedPFvvE
                0x0000000000000000       0x28 /usr/lib/gcc/arm-none-eabi/10.3.1/../../../arm-none-eabi/lib/thumb/v7e-m+dp/hard/libstdc++.a(eh_terminate.o)
 .ARM.extab.text._ZSt14set_unexpectedPFvvE
                0x0000000000000000        0x0 /usr/lib/gcc/arm-none-eabi/10.3.1/../../../arm-none-eabi/lib/thumb/v7e-m+dp/hard/libstdc++.a(eh_terminate.o)
 .ARM.exidx.text._ZSt14set_unexpectedPFvvE
                0x0000000000000000        0x8 /usr/lib/gcc/arm-none-eabi/10.3.1/../../../arm-none-eabi/lib/thumb/v7e-m+dp/hard/libstdc++.a(eh_terminate.o)
 .ARM.extab.text._ZSt14get_unexpectedv
                0x0000000000000000        0x0 /usr/lib/gcc/arm-none-eabi/10.3.1/../../../arm-none-eabi/lib/thumb/v7e-m+dp/hard/libstdc++.a(eh_terminate.o)
 .text          0x0000000000000000        0x0 /usr/lib/gcc/arm-none-eabi/10.3.1/../../../arm-none-eabi/lib/thumb/v7e-m+dp/hard/libstdc++.a(eh_unex_handler.o)
 .data          0x0000000000000000        0x0 /usr/lib/gcc/arm-none-eabi/10.3.1/../../../arm-none-eabi/lib/thumb/v7e-m+dp/hard/libstdc++.a(eh_unex_handler.o)
 .bss           0x0000000000000000        0x0 /usr/lib/gcc/arm-none-eabi/10.3.1/../../../arm-none-eabi/lib/thumb/v7e-m+dp/hard/libstdc++.a(eh_unex_handler.o)
 .text          0x0000000000000000        0x0 /usr/lib/gcc/arm-none-eabi/10.3.1/../../../arm-none-eabi/lib/thumb/v7e-m+dp/hard/libstdc++.a(new_op.o)
 .data          0x0000000000000000        0x0 /usr/lib/gcc/arm-none-eabi/10.3.1/../../../arm-none-eabi/lib/thumb/v7e-m+dp/hard/libstdc++.a(new_op.o)
 .bss           0x0000000000000000        0x0 /usr/lib/gcc/arm-none-eabi/10.3.1/../../../arm-none-eabi/lib/thumb/v7e-m+dp/hard/libstdc++.a(new_op.o)
 .ARM.extab.text._Znwj
                0x0000000000000000        0x0 /usr/lib/gcc/arm-none-eabi/10.3.1/../../../arm-none-eabi/lib/thumb/v7e-m+dp/hard/libstdc++.a(new_op.o)
 .text          0x0000000000000000        0x0 /usr/lib/gcc/arm-none-eabi/10.3.1/../../../arm-none-eabi/lib/thumb/v7e-m+dp/hard/libstdc++.a(pure.o)
 .data          0x0000000000000000        0x0 /usr/lib/gcc/arm-none-eabi/10.3.1/../../../arm-none-eabi/lib/thumb/v7e-m+dp/hard/libstdc++.a(pure.o)
 .bss           0x0000000000000000        0x0 /usr/lib/gcc/arm-none-eabi/10.3.1/../../../arm-none-eabi/lib/thumb/v7e-m+dp/hard/libstdc++.a(pure.o)
 .text.__cxa_pure_virtual
                0x0000000000000000        0x8 /usr/lib/gcc/arm-none-eabi/10.3.1/../../../arm-none-eabi/lib/thumb/v7e-m+dp/hard/libstdc++.a(pure.o)
 .ARM.extab.text.__cxa_pure_virtual
                0x0000000000000000        0x0 /usr/lib/gcc/arm-none-eabi/10.3.1/../../../arm-none-eabi/lib/thumb/v7e-m+dp/hard/libstdc++.a(pure.o)
 .ARM.exidx.text.__cxa_pure_virtual
                0x0000000000000000        0x8 /usr/lib/gcc/arm-none-eabi/10.3.1/../../../arm-none-eabi/lib/thumb/v7e-m+dp/hard/libstdc++.a(pure.o)
 .text.__cxa_deleted_virtual
                0x0000000000000000        0x8 /usr/lib/gcc/arm-none-eabi/10.3.1/../../../arm-none-eabi/lib/thumb/v7e-m+dp/hard/libstdc++.a(pure.o)
 .ARM.extab.text.__cxa_deleted_virtual
                0x0000000000000000        0x0 /usr/lib/gcc/arm-none-eabi/10.3.1/../../../arm-none-eabi/lib/thumb/v7e-m+dp/hard/libstdc++.a(pure.o)
 .ARM.exidx.text.__cxa_deleted_virtual
                0x0000000000000000        0x8 /usr/lib/gcc/arm-none-eabi/10.3.1/../../../arm-none-eabi/lib/thumb/v7e-m+dp/hard/libstdc++.a(pure.o)
 .debug_info    0x0000000000000000      0x3de /usr/lib/gcc/arm-none-eabi/10.3.1/../../../arm-none-eabi/lib/thumb/v7e-m+dp/hard/libstdc++.a(pure.o)
 .debug_abbrev  0x0000000000000000      0x27b /usr/lib/gcc/arm-none-eabi/10.3.1/../../../arm-none-eabi/lib/thumb/v7e-m+dp/hard/libstdc++.a(pure.o)
 .debug_aranges
                0x0000000000000000       0x20 /usr/lib/gcc/arm-none-eabi/10.3.1/../../../arm-none-eabi/lib/thumb/v7e-m+dp/hard/libstdc++.a(pure.o)
 .debug_ranges  0x0000000000000000       0x10 /usr/lib/gcc/arm-none-eabi/10.3.1/../../../arm-none-eabi/lib/thumb/v7e-m+dp/hard/libstdc++.a(pure.o)
 .debug_line    0x0000000000000000      0x2c7 /usr/lib/gcc/arm-none-eabi/10.3.1/../../../arm-none-eabi/lib/thumb/v7e-m+dp/hard/libstdc++.a(pure.o)
 .debug_str     0x0000000000000000      0x66e /usr/lib/gcc/arm-none-eabi/10.3.1/../../../arm-none-eabi/lib/thumb/v7e-m+dp/hard/libstdc++.a(pure.o)
 .comment       0x0000000000000000       0x34 /usr/lib/gcc/arm-none-eabi/10.3.1/../../../arm-none-eabi/lib/thumb/v7e-m+dp/hard/libstdc++.a(pure.o)
 .debug_frame   0x0000000000000000       0x40 /usr/lib/gcc/arm-none-eabi/10.3.1/../../../arm-none-eabi/lib/thumb/v7e-m+dp/hard/libstdc++.a(pure.o)
 .ARM.attributes
                0x0000000000000000       0x32 /usr/lib/gcc/arm-none-eabi/10.3.1/../../../arm-none-eabi/lib/thumb/v7e-m+dp/hard/libstdc++.a(pure.o)
 .text          0x0000000000000000        0x0 /usr/lib/gcc/arm-none-eabi/10.3.1/../../../arm-none-eabi/lib/thumb/v7e-m+dp/hard/libstdc++.a(si_class_type_info.o)
 .data          0x0000000000000000        0x0 /usr/lib/gcc/arm-none-eabi/10.3.1/../../../arm-none-eabi/lib/thumb/v7e-m+dp/hard/libstdc++.a(si_class_type_info.o)
 .bss           0x0000000000000000        0x0 /usr/lib/gcc/arm-none-eabi/10.3.1/../../../arm-none-eabi/lib/thumb/v7e-m+dp/hard/libstdc++.a(si_class_type_info.o)
 .ARM.extab.text._ZN10__cxxabiv120__si_class_type_infoD2Ev
                0x0000000000000000        0x0 /usr/lib/gcc/arm-none-eabi/10.3.1/../../../arm-none-eabi/lib/thumb/v7e-m+dp/hard/libstdc++.a(si_class_type_info.o)
 .ARM.extab.text._ZN10__cxxabiv120__si_class_type_infoD0Ev
                0x0000000000000000        0x0 /usr/lib/gcc/arm-none-eabi/10.3.1/../../../arm-none-eabi/lib/thumb/v7e-m+dp/hard/libstdc++.a(si_class_type_info.o)
 .ARM.extab.text._ZNK10__cxxabiv120__si_class_type_info20__do_find_public_srcEiPKvPKNS_17__class_type_infoES2_
                0x0000000000000000        0x0 /usr/lib/gcc/arm-none-eabi/10.3.1/../../../arm-none-eabi/lib/thumb/v7e-m+dp/hard/libstdc++.a(si_class_type_info.o)
 .ARM.extab.text._ZNK10__cxxabiv120__si_class_type_info12__do_dyncastEiNS_17__class_type_info10__sub_kindEPKS1_PKvS4_S6_RNS1_16__dyncast_resultE
                0x0000000000000000        0x0 /usr/lib/gcc/arm-none-eabi/10.3.1/../../../arm-none-eabi/lib/thumb/v7e-m+dp/hard/libstdc++.a(si_class_type_info.o)
 .ARM.extab.text._ZNK10__cxxabiv120__si_class_type_info11__do_upcastEPKNS_17__class_type_infoEPKvRNS1_15__upcast_resultE
                0x0000000000000000        0x0 /usr/lib/gcc/arm-none-eabi/10.3.1/../../../arm-none-eabi/lib/thumb/v7e-m+dp/hard/libstdc++.a(si_class_type_info.o)
 .text          0x0000000000000000        0x0 /usr/lib/gcc/arm-none-eabi/10.3.1/../../../arm-none-eabi/lib/thumb/v7e-m+dp/hard/libstdc++.a(tinfo.o)
 .data          0x0000000000000000        0x0 /usr/lib/gcc/arm-none-eabi/10.3.1/../../../arm-none-eabi/lib/thumb/v7e-m+dp/hard/libstdc++.a(tinfo.o)
 .bss           0x0000000000000000        0x0 /usr/lib/gcc/arm-none-eabi/10.3.1/../../../arm-none-eabi/lib/thumb/v7e-m+dp/hard/libstdc++.a(tinfo.o)
 .ARM.extab.text._ZNSt9type_infoD2Ev
                0x0000000000000000        0x0 /usr/lib/gcc/arm-none-eabi/10.3.1/../../../arm-none-eabi/lib/thumb/v7e-m+dp/hard/libstdc++.a(tinfo.o)
 .ARM.extab.text._ZNKSt9type_info14__is_pointer_pEv
                0x0000000000000000        0x0 /usr/lib/gcc/arm-none-eabi/10.3.1/../../../arm-none-eabi/lib/thumb/v7e-m+dp/hard/libstdc++.a(tinfo.o)
 .text._ZNKSt9type_info11__do_upcastEPKN10__cxxabiv117__class_type_infoEPPv
                0x0000000000000000        0x4 /usr/lib/gcc/arm-none-eabi/10.3.1/../../../arm-none-eabi/lib/thumb/v7e-m+dp/hard/libstdc++.a(tinfo.o)
 .ARM.extab.text._ZNKSt9type_info11__do_upcastEPKN10__cxxabiv117__class_type_infoEPPv
                0x0000000000000000        0x0 /usr/lib/gcc/arm-none-eabi/10.3.1/../../../arm-none-eabi/lib/thumb/v7e-m+dp/hard/libstdc++.a(tinfo.o)
 .ARM.exidx.text._ZNKSt9type_info11__do_upcastEPKN10__cxxabiv117__class_type_infoEPPv
                0x0000000000000000        0x8 /usr/lib/gcc/arm-none-eabi/10.3.1/../../../arm-none-eabi/lib/thumb/v7e-m+dp/hard/libstdc++.a(tinfo.o)
 .text._ZNSt9type_infoD0Ev
                0x0000000000000000       0x10 /usr/lib/gcc/arm-none-eabi/10.3.1/../../../arm-none-eabi/lib/thumb/v7e-m+dp/hard/libstdc++.a(tinfo.o)
 .ARM.extab.text._ZNSt9type_infoD0Ev
                0x0000000000000000        0x0 /usr/lib/gcc/arm-none-eabi/10.3.1/../../../arm-none-eabi/lib/thumb/v7e-m+dp/hard/libstdc++.a(tinfo.o)
 .ARM.exidx.text._ZNSt9type_infoD0Ev
                0x0000000000000000        0x8 /usr/lib/gcc/arm-none-eabi/10.3.1/../../../arm-none-eabi/lib/thumb/v7e-m+dp/hard/libstdc++.a(tinfo.o)
 .text._ZNKSt9type_info10__do_catchEPKS_PPvj
                0x0000000000000000       0x2c /usr/lib/gcc/arm-none-eabi/10.3.1/../../../arm-none-eabi/lib/thumb/v7e-m+dp/hard/libstdc++.a(tinfo.o)
 .ARM.extab.text._ZNKSt9type_info10__do_catchEPKS_PPvj
                0x0000000000000000        0x0 /usr/lib/gcc/arm-none-eabi/10.3.1/../../../arm-none-eabi/lib/thumb/v7e-m+dp/hard/libstdc++.a(tinfo.o)
 .ARM.exidx.text._ZNKSt9type_info10__do_catchEPKS_PPvj
                0x0000000000000000        0x8 /usr/lib/gcc/arm-none-eabi/10.3.1/../../../arm-none-eabi/lib/thumb/v7e-m+dp/hard/libstdc++.a(tinfo.o)
 .ARM.extab.text._ZNKSt9type_infoeqERKS_
                0x0000000000000000        0x0 /usr/lib/gcc/arm-none-eabi/10.3.1/../../../arm-none-eabi/lib/thumb/v7e-m+dp/hard/libstdc++.a(tinfo.o)
 .rodata._ZTVSt9type_info
                0x0000000000000000       0x20 /usr/lib/gcc/arm-none-eabi/10.3.1/../../../arm-none-eabi/lib/thumb/v7e-m+dp/hard/libstdc++.a(tinfo.o)
 .text          0x0000000000000000        0x0 /usr/lib/gcc/arm-none-eabi/10.3.1/../../../arm-none-eabi/lib/thumb/v7e-m+dp/hard/libstdc++.a(bad_alloc.o)
 .data          0x0000000000000000        0x0 /usr/lib/gcc/arm-none-eabi/10.3.1/../../../arm-none-eabi/lib/thumb/v7e-m+dp/hard/libstdc++.a(bad_alloc.o)
 .bss           0x0000000000000000        0x0 /usr/lib/gcc/arm-none-eabi/10.3.1/../../../arm-none-eabi/lib/thumb/v7e-m+dp/hard/libstdc++.a(bad_alloc.o)
 .ARM.extab.text._ZNKSt9bad_alloc4whatEv
                0x0000000000000000        0x0 /usr/lib/gcc/arm-none-eabi/10.3.1/../../../arm-none-eabi/lib/thumb/v7e-m+dp/hard/libstdc++.a(bad_alloc.o)
 .ARM.extab.text._ZNSt9bad_allocD2Ev
                0x0000000000000000        0x0 /usr/lib/gcc/arm-none-eabi/10.3.1/../../../arm-none-eabi/lib/thumb/v7e-m+dp/hard/libstdc++.a(bad_alloc.o)
 .ARM.extab.text._ZNSt9bad_allocD0Ev
                0x0000000000000000        0x0 /usr/lib/gcc/arm-none-eabi/10.3.1/../../../arm-none-eabi/lib/thumb/v7e-m+dp/hard/libstdc++.a(bad_alloc.o)
 .text          0x0000000000000000        0x0 /usr/lib/gcc/arm-none-eabi/10.3.1/../../../arm-none-eabi/lib/thumb/v7e-m+dp/hard/libstdc++.a(class_type_info.o)
 .data          0x0000000000000000        0x0 /usr/lib/gcc/arm-none-eabi/10.3.1/../../../arm-none-eabi/lib/thumb/v7e-m+dp/hard/libstdc++.a(class_type_info.o)
 .bss           0x0000000000000000        0x0 /usr/lib/gcc/arm-none-eabi/10.3.1/../../../arm-none-eabi/lib/thumb/v7e-m+dp/hard/libstdc++.a(class_type_info.o)
 .ARM.extab.text._ZNK10__cxxabiv117__class_type_info11__do_upcastEPKS0_PPv
                0x0000000000000000        0x0 /usr/lib/gcc/arm-none-eabi/10.3.1/../../../arm-none-eabi/lib/thumb/v7e-m+dp/hard/libstdc++.a(class_type_info.o)
 .ARM.extab.text._ZNK10__cxxabiv117__class_type_info20__do_find_public_srcEiPKvPKS0_S2_
                0x0000000000000000        0x0 /usr/lib/gcc/arm-none-eabi/10.3.1/../../../arm-none-eabi/lib/thumb/v7e-m+dp/hard/libstdc++.a(class_type_info.o)
 .ARM.extab.text._ZN10__cxxabiv117__class_type_infoD2Ev
                0x0000000000000000        0x0 /usr/lib/gcc/arm-none-eabi/10.3.1/../../../arm-none-eabi/lib/thumb/v7e-m+dp/hard/libstdc++.a(class_type_info.o)
 .ARM.extab.text._ZN10__cxxabiv117__class_type_infoD0Ev
                0x0000000000000000        0x0 /usr/lib/gcc/arm-none-eabi/10.3.1/../../../arm-none-eabi/lib/thumb/v7e-m+dp/hard/libstdc++.a(class_type_info.o)
 .ARM.extab.text._ZNK10__cxxabiv117__class_type_info12__do_dyncastEiNS0_10__sub_kindEPKS0_PKvS3_S5_RNS0_16__dyncast_resultE
                0x0000000000000000        0x0 /usr/lib/gcc/arm-none-eabi/10.3.1/../../../arm-none-eabi/lib/thumb/v7e-m+dp/hard/libstdc++.a(class_type_info.o)
 .ARM.extab.text._ZNK10__cxxabiv117__class_type_info11__do_upcastEPKS0_PKvRNS0_15__upcast_resultE
                0x0000000000000000        0x0 /usr/lib/gcc/arm-none-eabi/10.3.1/../../../arm-none-eabi/lib/thumb/v7e-m+dp/hard/libstdc++.a(class_type_info.o)
 .ARM.extab.text._ZNK10__cxxabiv117__class_type_info10__do_catchEPKSt9type_infoPPvj
                0x0000000000000000        0x0 /usr/lib/gcc/arm-none-eabi/10.3.1/../../../arm-none-eabi/lib/thumb/v7e-m+dp/hard/libstdc++.a(class_type_info.o)
 .text          0x0000000000000000        0x0 /usr/lib/gcc/arm-none-eabi/10.3.1/../../../arm-none-eabi/lib/thumb/v7e-m+dp/hard/libstdc++.a(del_op.o)
 .data          0x0000000000000000        0x0 /usr/lib/gcc/arm-none-eabi/10.3.1/../../../arm-none-eabi/lib/thumb/v7e-m+dp/hard/libstdc++.a(del_op.o)
 .bss           0x0000000000000000        0x0 /usr/lib/gcc/arm-none-eabi/10.3.1/../../../arm-none-eabi/lib/thumb/v7e-m+dp/hard/libstdc++.a(del_op.o)
 .ARM.extab.text._ZdlPv
                0x0000000000000000        0x0 /usr/lib/gcc/arm-none-eabi/10.3.1/../../../arm-none-eabi/lib/thumb/v7e-m+dp/hard/libstdc++.a(del_op.o)
 .text          0x0000000000000000        0x0 /usr/lib/gcc/arm-none-eabi/10.3.1/../../../arm-none-eabi/lib/thumb/v7e-m+dp/hard/libstdc++.a(eh_alloc.o)
 .data          0x0000000000000000        0x0 /usr/lib/gcc/arm-none-eabi/10.3.1/../../../arm-none-eabi/lib/thumb/v7e-m+dp/hard/libstdc++.a(eh_alloc.o)
 .bss           0x0000000000000000        0x0 /usr/lib/gcc/arm-none-eabi/10.3.1/../../../arm-none-eabi/lib/thumb/v7e-m+dp/hard/libstdc++.a(eh_alloc.o)
 .ARM.extab.text._ZN12_GLOBAL__N_14pool4freeEPv.constprop.0
                0x0000000000000000        0x0 /usr/lib/gcc/arm-none-eabi/10.3.1/../../../arm-none-eabi/lib/thumb/v7e-m+dp/hard/libstdc++.a(eh_alloc.o)
 .ARM.extab.text._ZN12_GLOBAL__N_14pool8allocateEj.constprop.0
                0x0000000000000000        0x0 /usr/lib/gcc/arm-none-eabi/10.3.1/../../../arm-none-eabi/lib/thumb/v7e-m+dp/hard/libstdc++.a(eh_alloc.o)
 .text._ZN9__gnu_cxx9__freeresEv
                0x0000000000000000       0x18 /usr/lib/gcc/arm-none-eabi/10.3.1/../../../arm-none-eabi/lib/thumb/v7e-m+dp/hard/libstdc++.a(eh_alloc.o)
 .ARM.extab.text._ZN9__gnu_cxx9__freeresEv
                0x0000000000000000        0x0 /usr/lib/gcc/arm-none-eabi/10.3.1/../../../arm-none-eabi/lib/thumb/v7e-m+dp/hard/libstdc++.a(eh_alloc.o)
 .ARM.exidx.text._ZN9__gnu_cxx9__freeresEv
                0x0000000000000000        0x8 /usr/lib/gcc/arm-none-eabi/10.3.1/../../../arm-none-eabi/lib/thumb/v7e-m+dp/hard/libstdc++.a(eh_alloc.o)
 .ARM.extab.text.__cxa_allocate_exception
                0x0000000000000000        0x0 /usr/lib/gcc/arm-none-eabi/10.3.1/../../../arm-none-eabi/lib/thumb/v7e-m+dp/hard/libstdc++.a(eh_alloc.o)
 .ARM.extab.text.__cxa_free_exception
                0x0000000000000000        0x0 /usr/lib/gcc/arm-none-eabi/10.3.1/../../../arm-none-eabi/lib/thumb/v7e-m+dp/hard/libstdc++.a(eh_alloc.o)
 .text.__cxa_allocate_dependent_exception
                0x0000000000000000       0x28 /usr/lib/gcc/arm-none-eabi/10.3.1/../../../arm-none-eabi/lib/thumb/v7e-m+dp/hard/libstdc++.a(eh_alloc.o)
 .ARM.extab.text.__cxa_allocate_dependent_exception
                0x0000000000000000        0x0 /usr/lib/gcc/arm-none-eabi/10.3.1/../../../arm-none-eabi/lib/thumb/v7e-m+dp/hard/libstdc++.a(eh_alloc.o)
 .ARM.exidx.text.__cxa_allocate_dependent_exception
                0x0000000000000000        0x8 /usr/lib/gcc/arm-none-eabi/10.3.1/../../../arm-none-eabi/lib/thumb/v7e-m+dp/hard/libstdc++.a(eh_alloc.o)
 .text.__cxa_free_dependent_exception
                0x0000000000000000       0x20 /usr/lib/gcc/arm-none-eabi/10.3.1/../../../arm-none-eabi/lib/thumb/v7e-m+dp/hard/libstdc++.a(eh_alloc.o)
 .ARM.extab.text.__cxa_free_dependent_exception
                0x0000000000000000        0x0 /usr/lib/gcc/arm-none-eabi/10.3.1/../../../arm-none-eabi/lib/thumb/v7e-m+dp/hard/libstdc++.a(eh_alloc.o)
 .ARM.exidx.text.__cxa_free_dependent_exception
                0x0000000000000000        0x8 /usr/lib/gcc/arm-none-eabi/10.3.1/../../../arm-none-eabi/lib/thumb/v7e-m+dp/hard/libstdc++.a(eh_alloc.o)
 .ARM.extab.text.startup._GLOBAL__sub_I__ZN9__gnu_cxx9__freeresEv
                0x0000000000000000        0x0 /usr/lib/gcc/arm-none-eabi/10.3.1/../../../arm-none-eabi/lib/thumb/v7e-m+dp/hard/libstdc++.a(eh_alloc.o)
 .text          0x0000000000000000        0x0 /usr/lib/gcc/arm-none-eabi/10.3.1/../../../arm-none-eabi/lib/thumb/v7e-m+dp/hard/libstdc++.a(eh_call.o)
 .data          0x0000000000000000        0x0 /usr/lib/gcc/arm-none-eabi/10.3.1/../../../arm-none-eabi/lib/thumb/v7e-m+dp/hard/libstdc++.a(eh_call.o)
 .bss           0x0000000000000000        0x0 /usr/lib/gcc/arm-none-eabi/10.3.1/../../../arm-none-eabi/lib/thumb/v7e-m+dp/hard/libstdc++.a(eh_call.o)
 .ARM.extab.text._ZN10__cxxabiv1L24__is_gxx_exception_classEPc
                0x0000000000000000        0x0 /usr/lib/gcc/arm-none-eabi/10.3.1/../../../arm-none-eabi/lib/thumb/v7e-m+dp/hard/libstdc++.a(eh_call.o)
 .ARM.extab.text.__cxa_call_terminate
                0x0000000000000000        0x0 /usr/lib/gcc/arm-none-eabi/10.3.1/../../../arm-none-eabi/lib/thumb/v7e-m+dp/hard/libstdc++.a(eh_call.o)
 .text          0x0000000000000000        0x0 /usr/lib/gcc/arm-none-eabi/10.3.1/../../../arm-none-eabi/lib/thumb/v7e-m+dp/hard/libstdc++.a(eh_catch.o)
 .data          0x0000000000000000        0x0 /usr/lib/gcc/arm-none-eabi/10.3.1/../../../arm-none-eabi/lib/thumb/v7e-m+dp/hard/libstdc++.a(eh_catch.o)
 .bss           0x0000000000000000        0x0 /usr/lib/gcc/arm-none-eabi/10.3.1/../../../arm-none-eabi/lib/thumb/v7e-m+dp/hard/libstdc++.a(eh_catch.o)
 .text.__cxa_get_exception_ptr
                0x0000000000000000        0x4 /usr/lib/gcc/arm-none-eabi/10.3.1/../../../arm-none-eabi/lib/thumb/v7e-m+dp/hard/libstdc++.a(eh_catch.o)
 .ARM.extab.text.__cxa_get_exception_ptr
                0x0000000000000000        0x0 /usr/lib/gcc/arm-none-eabi/10.3.1/../../../arm-none-eabi/lib/thumb/v7e-m+dp/hard/libstdc++.a(eh_catch.o)
 .ARM.exidx.text.__cxa_get_exception_ptr
                0x0000000000000000        0x8 /usr/lib/gcc/arm-none-eabi/10.3.1/../../../arm-none-eabi/lib/thumb/v7e-m+dp/hard/libstdc++.a(eh_catch.o)
 .ARM.extab.text.__cxa_end_catch
                0x0000000000000000        0x0 /usr/lib/gcc/arm-none-eabi/10.3.1/../../../arm-none-eabi/lib/thumb/v7e-m+dp/hard/libstdc++.a(eh_catch.o)
 .text._ZSt18uncaught_exceptionv
                0x0000000000000000       0x10 /usr/lib/gcc/arm-none-eabi/10.3.1/../../../arm-none-eabi/lib/thumb/v7e-m+dp/hard/libstdc++.a(eh_catch.o)
 .ARM.extab.text._ZSt18uncaught_exceptionv
                0x0000000000000000        0x0 /usr/lib/gcc/arm-none-eabi/10.3.1/../../../arm-none-eabi/lib/thumb/v7e-m+dp/hard/libstdc++.a(eh_catch.o)
 .ARM.exidx.text._ZSt18uncaught_exceptionv
                0x0000000000000000        0x8 /usr/lib/gcc/arm-none-eabi/10.3.1/../../../arm-none-eabi/lib/thumb/v7e-m+dp/hard/libstdc++.a(eh_catch.o)
 .text._ZSt19uncaught_exceptionsv
                0x0000000000000000        0xc /usr/lib/gcc/arm-none-eabi/10.3.1/../../../arm-none-eabi/lib/thumb/v7e-m+dp/hard/libstdc++.a(eh_catch.o)
 .ARM.extab.text._ZSt19uncaught_exceptionsv
                0x0000000000000000        0x0 /usr/lib/gcc/arm-none-eabi/10.3.1/../../../arm-none-eabi/lib/thumb/v7e-m+dp/hard/libstdc++.a(eh_catch.o)
 .ARM.exidx.text._ZSt19uncaught_exceptionsv
                0x0000000000000000        0x8 /usr/lib/gcc/arm-none-eabi/10.3.1/../../../arm-none-eabi/lib/thumb/v7e-m+dp/hard/libstdc++.a(eh_catch.o)
 .text          0x0000000000000000        0x0 /usr/lib/gcc/arm-none-eabi/10.3.1/../../../arm-none-eabi/lib/thumb/v7e-m+dp/hard/libstdc++.a(eh_term_handler.o)
 .data          0x0000000000000000        0x0 /usr/lib/gcc/arm-none-eabi/10.3.1/../../../arm-none-eabi/lib/thumb/v7e-m+dp/hard/libstdc++.a(eh_term_handler.o)
 .bss           0x0000000000000000        0x0 /usr/lib/gcc/arm-none-eabi/10.3.1/../../../arm-none-eabi/lib/thumb/v7e-m+dp/hard/libstdc++.a(eh_term_handler.o)
 .text          0x0000000000000000        0x0 /usr/lib/gcc/arm-none-eabi/10.3.1/../../../arm-none-eabi/lib/thumb/v7e-m+dp/hard/libstdc++.a(eh_throw.o)
 .data          0x0000000000000000        0x0 /usr/lib/gcc/arm-none-eabi/10.3.1/../../../arm-none-eabi/lib/thumb/v7e-m+dp/hard/libstdc++.a(eh_throw.o)
 .bss           0x0000000000000000        0x0 /usr/lib/gcc/arm-none-eabi/10.3.1/../../../arm-none-eabi/lib/thumb/v7e-m+dp/hard/libstdc++.a(eh_throw.o)
 .ARM.extab.text._ZL23__gxx_exception_cleanup19_Unwind_Reason_CodeP21_Unwind_Control_Block
                0x0000000000000000        0x0 /usr/lib/gcc/arm-none-eabi/10.3.1/../../../arm-none-eabi/lib/thumb/v7e-m+dp/hard/libstdc++.a(eh_throw.o)
 .ARM.extab.text.__cxa_init_primary_exception
                0x0000000000000000        0x0 /usr/lib/gcc/arm-none-eabi/10.3.1/../../../arm-none-eabi/lib/thumb/v7e-m+dp/hard/libstdc++.a(eh_throw.o)
 .ARM.extab.text.__cxa_throw
                0x0000000000000000        0x0 /usr/lib/gcc/arm-none-eabi/10.3.1/../../../arm-none-eabi/lib/thumb/v7e-m+dp/hard/libstdc++.a(eh_throw.o)
 .ARM.extab.text.__cxa_rethrow
                0x0000000000000000        0x0 /usr/lib/gcc/arm-none-eabi/10.3.1/../../../arm-none-eabi/lib/thumb/v7e-m+dp/hard/libstdc++.a(eh_throw.o)
 .text          0x0000000000000000        0x0 /usr/lib/gcc/arm-none-eabi/10.3.1/../../../arm-none-eabi/lib/thumb/v7e-m+dp/hard/libstdc++.a(new_handler.o)
 .data          0x0000000000000000        0x0 /usr/lib/gcc/arm-none-eabi/10.3.1/../../../arm-none-eabi/lib/thumb/v7e-m+dp/hard/libstdc++.a(new_handler.o)
 .bss           0x0000000000000000        0x0 /usr/lib/gcc/arm-none-eabi/10.3.1/../../../arm-none-eabi/lib/thumb/v7e-m+dp/hard/libstdc++.a(new_handler.o)
 .text._ZSt15set_new_handlerPFvvE
                0x0000000000000000       0x20 /usr/lib/gcc/arm-none-eabi/10.3.1/../../../arm-none-eabi/lib/thumb/v7e-m+dp/hard/libstdc++.a(new_handler.o)
 .ARM.extab.text._ZSt15set_new_handlerPFvvE
                0x0000000000000000        0x0 /usr/lib/gcc/arm-none-eabi/10.3.1/../../../arm-none-eabi/lib/thumb/v7e-m+dp/hard/libstdc++.a(new_handler.o)
 .ARM.exidx.text._ZSt15set_new_handlerPFvvE
                0x0000000000000000        0x8 /usr/lib/gcc/arm-none-eabi/10.3.1/../../../arm-none-eabi/lib/thumb/v7e-m+dp/hard/libstdc++.a(new_handler.o)
 .ARM.extab.text._ZSt15get_new_handlerv
                0x0000000000000000        0x0 /usr/lib/gcc/arm-none-eabi/10.3.1/../../../arm-none-eabi/lib/thumb/v7e-m+dp/hard/libstdc++.a(new_handler.o)
 .rodata._ZSt7nothrow
                0x0000000000000000        0x1 /usr/lib/gcc/arm-none-eabi/10.3.1/../../../arm-none-eabi/lib/thumb/v7e-m+dp/hard/libstdc++.a(new_handler.o)
 .data          0x0000000000000000        0x0 /usr/lib/gcc/arm-none-eabi/10.3.1/../../../arm-none-eabi/lib/thumb/v7e-m+dp/hard/libc.a(lib_a-abort.o)
 .bss           0x0000000000000000        0x0 /usr/lib/gcc/arm-none-eabi/10.3.1/../../../arm-none-eabi/lib/thumb/v7e-m+dp/hard/libc.a(lib_a-abort.o)
 .data          0x0000000000000000        0x0 /usr/lib/gcc/arm-none-eabi/10.3.1/../../../arm-none-eabi/lib/thumb/v7e-m+dp/hard/libc.a(lib_a-atexit.o)
 .bss           0x0000000000000000        0x0 /usr/lib/gcc/arm-none-eabi/10.3.1/../../../arm-none-eabi/lib/thumb/v7e-m+dp/hard/libc.a(lib_a-atexit.o)
 .text          0x0000000000000000       0x20 /usr/lib/gcc/arm-none-eabi/10.3.1/../../../arm-none-eabi/lib/thumb/v7e-m+dp/hard/libc.a(lib_a-exit.o)
 .data          0x0000000000000000        0x0 /usr/lib/gcc/arm-none-eabi/10.3.1/../../../arm-none-eabi/lib/thumb/v7e-m+dp/hard/libc.a(lib_a-exit.o)
 .bss           0x0000000000000000        0x0 /usr/lib/gcc/arm-none-eabi/10.3.1/../../../arm-none-eabi/lib/thumb/v7e-m+dp/hard/libc.a(lib_a-exit.o)
 .debug_info    0x0000000000000000      0x969 /usr/lib/gcc/arm-none-eabi/10.3.1/../../../arm-none-eabi/lib/thumb/v7e-m+dp/hard/libc.a(lib_a-exit.o)
 .debug_abbrev  0x0000000000000000      0x20c /usr/lib/gcc/arm-none-eabi/10.3.1/../../../arm-none-eabi/lib/thumb/v7e-m+dp/hard/libc.a(lib_a-exit.o)
 .debug_loc     0x0000000000000000       0x22 /usr/lib/gcc/arm-none-eabi/10.3.1/../../../arm-none-eabi/lib/thumb/v7e-m+dp/hard/libc.a(lib_a-exit.o)
 .debug_aranges
                0x0000000000000000       0x20 /usr/lib/gcc/arm-none-eabi/10.3.1/../../../arm-none-eabi/lib/thumb/v7e-m+dp/hard/libc.a(lib_a-exit.o)
 .debug_line    0x0000000000000000      0x179 /usr/lib/gcc/arm-none-eabi/10.3.1/../../../arm-none-eabi/lib/thumb/v7e-m+dp/hard/libc.a(lib_a-exit.o)
 .debug_str     0x0000000000000000      0x58e /usr/lib/gcc/arm-none-eabi/10.3.1/../../../arm-none-eabi/lib/thumb/v7e-m+dp/hard/libc.a(lib_a-exit.o)
 .comment       0x0000000000000000       0x34 /usr/lib/gcc/arm-none-eabi/10.3.1/../../../arm-none-eabi/lib/thumb/v7e-m+dp/hard/libc.a(lib_a-exit.o)
 .debug_frame   0x0000000000000000       0x28 /usr/lib/gcc/arm-none-eabi/10.3.1/../../../arm-none-eabi/lib/thumb/v7e-m+dp/hard/libc.a(lib_a-exit.o)
 .ARM.attributes
                0x0000000000000000       0x32 /usr/lib/gcc/arm-none-eabi/10.3.1/../../../arm-none-eabi/lib/thumb/v7e-m+dp/hard/libc.a(lib_a-exit.o)
 .data          0x0000000000000000        0x0 /usr/lib/gcc/arm-none-eabi/10.3.1/../../../arm-none-eabi/lib/thumb/v7e-m+dp/hard/libc.a(lib_a-fini.o)
 .bss           0x0000000000000000        0x0 /usr/lib/gcc/arm-none-eabi/10.3.1/../../../arm-none-eabi/lib/thumb/v7e-m+dp/hard/libc.a(lib_a-fini.o)
 .text          0x0000000000000000        0x0 /usr/lib/gcc/arm-none-eabi/10.3.1/../../../arm-none-eabi/lib/thumb/v7e-m+dp/hard/libc.a(lib_a-impure.o)
 .bss           0x0000000000000000        0x0 /usr/lib/gcc/arm-none-eabi/10.3.1/../../../arm-none-eabi/lib/thumb/v7e-m+dp/hard/libc.a(lib_a-impure.o)
 .data          0x0000000000000000        0x0 /usr/lib/gcc/arm-none-eabi/10.3.1/../../../arm-none-eabi/lib/thumb/v7e-m+dp/hard/libc.a(lib_a-init.o)
 .bss           0x0000000000000000        0x0 /usr/lib/gcc/arm-none-eabi/10.3.1/../../../arm-none-eabi/lib/thumb/v7e-m+dp/hard/libc.a(lib_a-init.o)
 .data          0x0000000000000000        0x0 /usr/lib/gcc/arm-none-eabi/10.3.1/../../../arm-none-eabi/lib/thumb/v7e-m+dp/hard/libc.a(lib_a-malloc.o)
 .bss           0x0000000000000000        0x0 /usr/lib/gcc/arm-none-eabi/10.3.1/../../../arm-none-eabi/lib/thumb/v7e-m+dp/hard/libc.a(lib_a-malloc.o)
 .data          0x0000000000000000        0x0 /usr/lib/gcc/arm-none-eabi/10.3.1/../../../arm-none-eabi/lib/thumb/v7e-m+dp/hard/libc.a(lib_a-memcpy.o)
 .bss           0x0000000000000000        0x0 /usr/lib/gcc/arm-none-eabi/10.3.1/../../../arm-none-eabi/lib/thumb/v7e-m+dp/hard/libc.a(lib_a-memcpy.o)
 .data          0x0000000000000000        0x0 /usr/lib/gcc/arm-none-eabi/10.3.1/../../../arm-none-eabi/lib/thumb/v7e-m+dp/hard/libc.a(lib_a-memset.o)
 .bss           0x0000000000000000        0x0 /usr/lib/gcc/arm-none-eabi/10.3.1/../../../arm-none-eabi/lib/thumb/v7e-m+dp/hard/libc.a(lib_a-memset.o)
 .data          0x0000000000000000        0x0 /usr/lib/gcc/arm-none-eabi/10.3.1/../../../arm-none-eabi/lib/thumb/v7e-m+dp/hard/libc.a(lib_a-mlock.o)
 .bss           0x0000000000000000        0x0 /usr/lib/gcc/arm-none-eabi/10.3.1/../../../arm-none-eabi/lib/thumb/v7e-m+dp/hard/libc.a(lib_a-mlock.o)
 .data          0x0000000000000000        0x0 /usr/lib/gcc/arm-none-eabi/10.3.1/../../../arm-none-eabi/lib/thumb/v7e-m+dp/hard/libc.a(lib_a-sbrkr.o)
 .bss           0x0000000000000000        0x0 /usr/lib/gcc/arm-none-eabi/10.3.1/../../../arm-none-eabi/lib/thumb/v7e-m+dp/hard/libc.a(lib_a-sbrkr.o)
 .data          0x0000000000000000        0x0 /usr/lib/gcc/arm-none-eabi/10.3.1/../../../arm-none-eabi/lib/thumb/v7e-m+dp/hard/libc.a(lib_a-signal.o)
 .bss           0x0000000000000000        0x0 /usr/lib/gcc/arm-none-eabi/10.3.1/../../../arm-none-eabi/lib/thumb/v7e-m+dp/hard/libc.a(lib_a-signal.o)
 .data          0x0000000000000000        0x0 /usr/lib/gcc/arm-none-eabi/10.3.1/../../../arm-none-eabi/lib/thumb/v7e-m+dp/hard/libc.a(lib_a-signalr.o)
 .bss           0x0000000000000000        0x0 /usr/lib/gcc/arm-none-eabi/10.3.1/../../../arm-none-eabi/lib/thumb/v7e-m+dp/hard/libc.a(lib_a-signalr.o)
 .data          0x0000000000000000        0x0 /usr/lib/gcc/arm-none-eabi/10.3.1/../../../arm-none-eabi/lib/thumb/v7e-m+dp/hard/libc.a(lib_a-strcmp.o)
 .bss           0x0000000000000000        0x0 /usr/lib/gcc/arm-none-eabi/10.3.1/../../../arm-none-eabi/lib/thumb/v7e-m+dp/hard/libc.a(lib_a-strcmp.o)
 .data          0x0000000000000000        0x0 /usr/lib/gcc/arm-none-eabi/10.3.1/../../../arm-none-eabi/lib/thumb/v7e-m+dp/hard/libc.a(lib_a-__atexit.o)
 .bss           0x0000000000000000        0x0 /usr/lib/gcc/arm-none-eabi/10.3.1/../../../arm-none-eabi/lib/thumb/v7e-m+dp/hard/libc.a(lib_a-__atexit.o)
 .text          0x0000000000000000       0xb8 /usr/lib/gcc/arm-none-eabi/10.3.1/../../../arm-none-eabi/lib/thumb/v7e-m+dp/hard/libc.a(lib_a-__call_atexit.o)
 .data          0x0000000000000000        0x0 /usr/lib/gcc/arm-none-eabi/10.3.1/../../../arm-none-eabi/lib/thumb/v7e-m+dp/hard/libc.a(lib_a-__call_atexit.o)
 .bss           0x0000000000000000        0x0 /usr/lib/gcc/arm-none-eabi/10.3.1/../../../arm-none-eabi/lib/thumb/v7e-m+dp/hard/libc.a(lib_a-__call_atexit.o)
 .data          0x0000000000000000        0x0 /usr/lib/gcc/arm-none-eabi/10.3.1/../../../arm-none-eabi/lib/thumb/v7e-m+dp/hard/libc.a(lib_a-freer.o)
 .bss           0x0000000000000000        0x0 /usr/lib/gcc/arm-none-eabi/10.3.1/../../../arm-none-eabi/lib/thumb/v7e-m+dp/hard/libc.a(lib_a-freer.o)
 .text          0x0000000000000000       0xd8 /usr/lib/gcc/arm-none-eabi/10.3.1/../../../arm-none-eabi/lib/thumb/v7e-m+dp/hard/libc.a(lib_a-reent.o)
 .data          0x0000000000000000        0x0 /usr/lib/gcc/arm-none-eabi/10.3.1/../../../arm-none-eabi/lib/thumb/v7e-m+dp/hard/libc.a(lib_a-reent.o)
 .data          0x0000000000000000        0x0 /usr/lib/gcc/arm-none-eabi/10.3.1/thumb/v7e-m+dp/hard/libgcc.a(unwind-arm.o)
 .bss           0x0000000000000000        0x0 /usr/lib/gcc/arm-none-eabi/10.3.1/thumb/v7e-m+dp/hard/libgcc.a(unwind-arm.o)
 .ARM.extab     0x0000000000000000        0x0 /usr/lib/gcc/arm-none-eabi/10.3.1/thumb/v7e-m+dp/hard/libgcc.a(unwind-arm.o)
 .data          0x0000000000000000        0x0 /usr/lib/gcc/arm-none-eabi/10.3.1/thumb/v7e-m+dp/hard/libgcc.a(libunwind.o)
 .bss           0x0000000000000000        0x0 /usr/lib/gcc/arm-none-eabi/10.3.1/thumb/v7e-m+dp/hard/libgcc.a(libunwind.o)
 .data          0x0000000000000000        0x0 /usr/lib/gcc/arm-none-eabi/10.3.1/thumb/v7e-m+dp/hard/libgcc.a(pr-support.o)
 .bss           0x0000000000000000        0x0 /usr/lib/gcc/arm-none-eabi/10.3.1/thumb/v7e-m+dp/hard/libgcc.a(pr-support.o)
 .ARM.extab.text.unlikely
                0x0000000000000000        0x0 /usr/lib/gcc/arm-none-eabi/10.3.1/thumb/v7e-m+dp/hard/libgcc.a(pr-support.o)
 .data          0x0000000000000000        0x0 /usr/lib/gcc/arm-none-eabi/10.3.1/../../../arm-none-eabi/lib/thumb/v7e-m+dp/hard/libnosys.a(getpid.o)
 .bss           0x0000000000000000        0x0 /usr/lib/gcc/arm-none-eabi/10.3.1/../../../arm-none-eabi/lib/thumb/v7e-m+dp/hard/libnosys.a(getpid.o)
 .data          0x0000000000000000        0x0 /usr/lib/gcc/arm-none-eabi/10.3.1/../../../arm-none-eabi/lib/thumb/v7e-m+dp/hard/libnosys.a(kill.o)
 .bss           0x0000000000000000        0x0 /usr/lib/gcc/arm-none-eabi/10.3.1/../../../arm-none-eabi/lib/thumb/v7e-m+dp/hard/libnosys.a(kill.o)
 .data          0x0000000000000000        0x0 /usr/lib/gcc/arm-none-eabi/10.3.1/../../../arm-none-eabi/lib/thumb/v7e-m+dp/hard/libnosys.a(sbrk.o)
 .data          0x0000000000000000        0x0 /usr/lib/gcc/arm-none-eabi/10.3.1/../../../arm-none-eabi/lib/thumb/v7e-m+dp/hard/libnosys.a(_exit.o)
 .bss           0x0000000000000000        0x0 /usr/lib/gcc/arm-none-eabi/10.3.1/../../../arm-none-eabi/lib/thumb/v7e-m+dp/hard/libnosys.a(_exit.o)
 .text          0x0000000000000000        0x0 /usr/lib/gcc/arm-none-eabi/10.3.1/thumb/v7e-m+dp/hard/crtend.o
 .data          0x0000000000000000        0x0 /usr/lib/gcc/arm-none-eabi/10.3.1/thumb/v7e-m+dp/hard/crtend.o
 .bss           0x0000000000000000        0x0 /usr/lib/gcc/arm-none-eabi/10.3.1/thumb/v7e-m+dp/hard/crtend.o
 .rodata        0x0000000000000000       0x24 /usr/lib/gcc/arm-none-eabi/10.3.1/thumb/v7e-m+dp/hard/crtend.o
 .eh_frame      0x0000000000000000        0x4 /usr/lib/gcc/arm-none-eabi/10.3.1/thumb/v7e-m+dp/hard/crtend.o
 .text          0x0000000000000000        0x0 /usr/lib/gcc/arm-none-eabi/10.3.1/thumb/v7e-m+dp/hard/crtn.o
 .data          0x0000000000000000        0x0 /usr/lib/gcc/arm-none-eabi/10.3.1/thumb/v7e-m+dp/hard/crtn.o
 .bss           0x0000000000000000        0x0 /usr/lib/gcc/arm-none-eabi/10.3.1/thumb/v7e-m+dp/hard/crtn.o

Memory Configuration

Name             Origin             Length             Attributes
DTCMRAM          0x0000000020000000 0x0000000000020000 xrw
RAM_D1           0x0000000024000000 0x0000000000050000 xrw
RAM_D2           0x0000000030000000 0x0000000000008000 xrw
RAM_D3           0x0000000038000000 0x0000000000004000 xrw
ITCMRAM          0x0000000000000000 0x0000000000010000 xrw
FLASH            0x0000000008000000 0x0000000000100000 xr
*default*        0x0000000000000000 0xffffffffffffffff

Linker script and memory map

LOAD /usr/lib/gcc/arm-none-eabi/10.3.1/thumb/v7e-m+dp/hard/crti.o
LOAD /usr/lib/gcc/arm-none-eabi/10.3.1/thumb/v7e-m+dp/hard/crtbegin.o
LOAD /usr/lib/gcc/arm-none-eabi/10.3.1/../../../arm-none-eabi/lib/thumb/v7e-m+dp/hard/crt0.o
LOAD build/freertos.o
LOAD build/stm32h7xx_it.o
LOAD build/stm32h7xx_hal_msp.o
LOAD build/stm32h7xx_hal_timebase_tim.o
LOAD build/stm32h7xx_hal_cortex.o
LOAD build/stm32h7xx_hal_rcc.o
LOAD build/stm32h7xx_hal_rcc_ex.o
LOAD build/stm32h7xx_hal_flash.o
LOAD build/stm32h7xx_hal_flash_ex.o
LOAD build/stm32h7xx_hal_gpio.o
LOAD build/stm32h7xx_hal_hsem.o
LOAD build/stm32h7xx_hal_dma.o
LOAD build/stm32h7xx_hal_dma_ex.o
LOAD build/stm32h7xx_hal_mdma.o
LOAD build/stm32h7xx_hal_pwr.o
LOAD build/stm32h7xx_hal_pwr_ex.o
LOAD build/stm32h7xx_hal.o
LOAD build/stm32h7xx_hal_i2c.o
LOAD build/stm32h7xx_hal_i2c_ex.o
LOAD build/stm32h7xx_hal_exti.o
LOAD build/stm32h7xx_hal_tim.o
LOAD build/stm32h7xx_hal_tim_ex.o
LOAD build/system_stm32h7xx.o
LOAD build/croutine.o
LOAD build/event_groups.o
LOAD build/list.o
LOAD build/queue.o
LOAD build/stream_buffer.o
LOAD build/tasks.o
LOAD build/timers.o
LOAD build/cmsis_os2.o
LOAD build/heap_4.o
LOAD build/port.o
LOAD build/LED.o
LOAD build/main.o
LOAD build/startup_stm32h733xx.o
LOAD /usr/lib/gcc/arm-none-eabi/10.3.1/../../../arm-none-eabi/lib/thumb/v7e-m+dp/hard/libnosys.a
LOAD /usr/lib/gcc/arm-none-eabi/10.3.1/../../../arm-none-eabi/lib/thumb/v7e-m+dp/hard/libstdc++.a
LOAD /usr/lib/gcc/arm-none-eabi/10.3.1/../../../arm-none-eabi/lib/thumb/v7e-m+dp/hard/libm.a
LOAD /usr/lib/gcc/arm-none-eabi/10.3.1/../../../arm-none-eabi/lib/thumb/v7e-m+dp/hard/libc.a
START GROUP
LOAD /usr/lib/gcc/arm-none-eabi/10.3.1/thumb/v7e-m+dp/hard/libgcc.a
LOAD /usr/lib/gcc/arm-none-eabi/10.3.1/../../../arm-none-eabi/lib/thumb/v7e-m+dp/hard/libc.a
END GROUP
START GROUP
LOAD /usr/lib/gcc/arm-none-eabi/10.3.1/thumb/v7e-m+dp/hard/libgcc.a
LOAD /usr/lib/gcc/arm-none-eabi/10.3.1/../../../arm-none-eabi/lib/thumb/v7e-m+dp/hard/libc.a
LOAD /usr/lib/gcc/arm-none-eabi/10.3.1/../../../arm-none-eabi/lib/thumb/v7e-m+dp/hard/libnosys.a
END GROUP
LOAD /usr/lib/gcc/arm-none-eabi/10.3.1/thumb/v7e-m+dp/hard/crtend.o
LOAD /usr/lib/gcc/arm-none-eabi/10.3.1/thumb/v7e-m+dp/hard/crtn.o
                0x0000000020020000                _estack = (ORIGIN (DTCMRAM) + LENGTH (DTCMRAM))
                0x0000000000000200                _Min_Heap_Size = 0x200
                0x0000000000000400                _Min_Stack_Size = 0x400

.isr_vector     0x0000000008000000      0x2cc
                0x0000000008000000                . = ALIGN (0x4)
 *(.isr_vector)
 .isr_vector    0x0000000008000000      0x2cc build/startup_stm32h733xx.o
                0x0000000008000000                g_pfnVectors
                0x00000000080002cc                . = ALIGN (0x4)

.text           0x00000000080002e0     0x649c
                0x00000000080002e0                . = ALIGN (0x4)
 *(.text)
 .text          0x00000000080002e0       0x88 /usr/lib/gcc/arm-none-eabi/10.3.1/thumb/v7e-m+dp/hard/crtbegin.o
 .text          0x0000000008000368       0x10 /usr/lib/gcc/arm-none-eabi/10.3.1/../../../arm-none-eabi/lib/thumb/v7e-m+dp/hard/libc.a(lib_a-abort.o)
                0x0000000008000368                abort
 .text          0x0000000008000378        0xc /usr/lib/gcc/arm-none-eabi/10.3.1/../../../arm-none-eabi/lib/thumb/v7e-m+dp/hard/libc.a(lib_a-atexit.o)
                0x0000000008000378                atexit
 .text          0x0000000008000384       0x2c /usr/lib/gcc/arm-none-eabi/10.3.1/../../../arm-none-eabi/lib/thumb/v7e-m+dp/hard/libc.a(lib_a-fini.o)
                0x0000000008000384                __libc_fini_array
 .text          0x00000000080003b0       0x48 /usr/lib/gcc/arm-none-eabi/10.3.1/../../../arm-none-eabi/lib/thumb/v7e-m+dp/hard/libc.a(lib_a-init.o)
                0x00000000080003b0                __libc_init_array
 .text          0x00000000080003f8       0x20 /usr/lib/gcc/arm-none-eabi/10.3.1/../../../arm-none-eabi/lib/thumb/v7e-m+dp/hard/libc.a(lib_a-malloc.o)
                0x00000000080003f8                malloc
                0x0000000008000408                free
 .text          0x0000000008000418      0x554 /usr/lib/gcc/arm-none-eabi/10.3.1/../../../arm-none-eabi/lib/thumb/v7e-m+dp/hard/libc.a(lib_a-mallocr.o)
                0x0000000008000418                _malloc_r
 .text          0x000000000800096c      0x134 /usr/lib/gcc/arm-none-eabi/10.3.1/../../../arm-none-eabi/lib/thumb/v7e-m+dp/hard/libc.a(lib_a-memcpy.o)
                0x000000000800096c                memcpy
 .text          0x0000000008000aa0       0xa4 /usr/lib/gcc/arm-none-eabi/10.3.1/../../../arm-none-eabi/lib/thumb/v7e-m+dp/hard/libc.a(lib_a-memset.o)
                0x0000000008000aa0                memset
 .text          0x0000000008000b44        0x8 /usr/lib/gcc/arm-none-eabi/10.3.1/../../../arm-none-eabi/lib/thumb/v7e-m+dp/hard/libc.a(lib_a-mlock.o)
                0x0000000008000b44                __malloc_lock
                0x0000000008000b48                __malloc_unlock
 .text          0x0000000008000b4c       0x24 /usr/lib/gcc/arm-none-eabi/10.3.1/../../../arm-none-eabi/lib/thumb/v7e-m+dp/hard/libc.a(lib_a-sbrkr.o)
                0x0000000008000b4c                _sbrk_r
 .text          0x0000000008000b70      0x288 /usr/lib/gcc/arm-none-eabi/10.3.1/../../../arm-none-eabi/lib/thumb/v7e-m+dp/hard/libc.a(lib_a-signal.o)
                0x0000000008000b70                _init_signal_r
                0x0000000008000ba0                _signal_r
                0x0000000008000bec                _raise_r
                0x0000000008000c44                __sigtramp_r
                0x0000000008000ca8                raise
                0x0000000008000d04                signal
                0x0000000008000d58                _init_signal
                0x0000000008000d90                __sigtramp
 .text          0x0000000008000df8       0x30 /usr/lib/gcc/arm-none-eabi/10.3.1/../../../arm-none-eabi/lib/thumb/v7e-m+dp/hard/libc.a(lib_a-signalr.o)
                0x0000000008000df8                _kill_r
                0x0000000008000e24                _getpid_r
 *fill*         0x0000000008000e28       0x18 
 .text          0x0000000008000e40      0x2dc /usr/lib/gcc/arm-none-eabi/10.3.1/../../../arm-none-eabi/lib/thumb/v7e-m+dp/hard/libc.a(lib_a-strcmp.o)
                0x0000000008000e48                strcmp
 .text          0x000000000800111c       0x68 /usr/lib/gcc/arm-none-eabi/10.3.1/../../../arm-none-eabi/lib/thumb/v7e-m+dp/hard/libc.a(lib_a-__atexit.o)
                0x000000000800111c                __register_exitproc
 .text          0x0000000008001184      0x2ac /usr/lib/gcc/arm-none-eabi/10.3.1/../../../arm-none-eabi/lib/thumb/v7e-m+dp/hard/libc.a(lib_a-freer.o)
                0x0000000008001184                _malloc_trim_r
                0x0000000008001224                _free_r
 .text          0x0000000008001430      0x9d8 /usr/lib/gcc/arm-none-eabi/10.3.1/thumb/v7e-m+dp/hard/libgcc.a(unwind-arm.o)
                0x00000000080016d8                _Unwind_GetCFA
                0x00000000080016dc                __gnu_Unwind_RaiseException
                0x0000000008001744                __gnu_Unwind_ForcedUnwind
                0x0000000008001754                __gnu_Unwind_Resume
                0x0000000008001798                __gnu_Unwind_Resume_or_Rethrow
                0x00000000080017a8                _Unwind_Complete
                0x00000000080017ac                _Unwind_DeleteException
                0x00000000080017b8                _Unwind_VRS_Get
                0x0000000008001804                _Unwind_VRS_Set
                0x000000000800184c                __gnu_Unwind_Backtrace
                0x0000000008001b78                __aeabi_unwind_cpp_pr0
                0x0000000008001b7c                __aeabi_unwind_cpp_pr1
                0x0000000008001b80                __aeabi_unwind_cpp_pr2
                0x0000000008001b84                _Unwind_VRS_Pop
 .text          0x0000000008001e08      0x1ac /usr/lib/gcc/arm-none-eabi/10.3.1/thumb/v7e-m+dp/hard/libgcc.a(libunwind.o)
                0x0000000008001e08                __restore_core_regs
                0x0000000008001e08                restore_core_regs
                0x0000000008001e20                __gnu_Unwind_Restore_VFP
                0x0000000008001e28                __gnu_Unwind_Save_VFP
                0x0000000008001e30                __gnu_Unwind_Restore_VFP_D
                0x0000000008001e38                __gnu_Unwind_Save_VFP_D
                0x0000000008001e40                __gnu_Unwind_Restore_VFP_D_16_to_31
                0x0000000008001e48                __gnu_Unwind_Save_VFP_D_16_to_31
                0x0000000008001e50                __gnu_Unwind_Restore_WMMXD
                0x0000000008001e94                __gnu_Unwind_Save_WMMXD
                0x0000000008001ed8                __gnu_Unwind_Restore_WMMXC
                0x0000000008001eec                __gnu_Unwind_Save_WMMXC
                0x0000000008001f00                ___Unwind_RaiseException
                0x0000000008001f00                _Unwind_RaiseException
                0x0000000008001f24                ___Unwind_Resume
                0x0000000008001f24                _Unwind_Resume
                0x0000000008001f48                _Unwind_Resume_or_Rethrow
                0x0000000008001f48                ___Unwind_Resume_or_Rethrow
                0x0000000008001f6c                ___Unwind_ForcedUnwind
                0x0000000008001f6c                _Unwind_ForcedUnwind
                0x0000000008001f90                _Unwind_Backtrace
                0x0000000008001f90                ___Unwind_Backtrace
 .text          0x0000000008001fb4      0x350 /usr/lib/gcc/arm-none-eabi/10.3.1/thumb/v7e-m+dp/hard/libgcc.a(pr-support.o)
                0x000000000800200c                __gnu_unwind_execute
                0x00000000080022b8                __gnu_unwind_frame
                0x00000000080022e4                _Unwind_GetRegionStart
                0x00000000080022f0                _Unwind_GetLanguageSpecificData
 .text          0x0000000008002304       0x10 /usr/lib/gcc/arm-none-eabi/10.3.1/../../../arm-none-eabi/lib/thumb/v7e-m+dp/hard/libnosys.a(getpid.o)
                0x0000000008002304                _getpid
 .text          0x0000000008002314       0x10 /usr/lib/gcc/arm-none-eabi/10.3.1/../../../arm-none-eabi/lib/thumb/v7e-m+dp/hard/libnosys.a(kill.o)
                0x0000000008002314                _kill
 .text          0x0000000008002324       0x1c /usr/lib/gcc/arm-none-eabi/10.3.1/../../../arm-none-eabi/lib/thumb/v7e-m+dp/hard/libnosys.a(sbrk.o)
                0x0000000008002324                _sbrk
 .text          0x0000000008002340        0x4 /usr/lib/gcc/arm-none-eabi/10.3.1/../../../arm-none-eabi/lib/thumb/v7e-m+dp/hard/libnosys.a(_exit.o)
                0x0000000008002340                _exit
 *(.text*)
 .text.NMI_Handler
                0x0000000008002344        0x2 build/stm32h7xx_it.o
                0x0000000008002344                NMI_Handler
 .text.HardFault_Handler
                0x0000000008002346        0x2 build/stm32h7xx_it.o
                0x0000000008002346                HardFault_Handler
 .text.MemManage_Handler
                0x0000000008002348        0x2 build/stm32h7xx_it.o
                0x0000000008002348                MemManage_Handler
 .text.BusFault_Handler
                0x000000000800234a        0x2 build/stm32h7xx_it.o
                0x000000000800234a                BusFault_Handler
 .text.UsageFault_Handler
                0x000000000800234c        0x2 build/stm32h7xx_it.o
                0x000000000800234c                UsageFault_Handler
 .text.DebugMon_Handler
                0x000000000800234e        0x2 build/stm32h7xx_it.o
                0x000000000800234e                DebugMon_Handler
 .text.TIM1_UP_IRQHandler
                0x0000000008002350       0x10 build/stm32h7xx_it.o
                0x0000000008002350                TIM1_UP_IRQHandler
 .text.HAL_MspInit
                0x0000000008002360       0x34 build/stm32h7xx_hal_msp.o
                0x0000000008002360                HAL_MspInit
 .text.HAL_InitTick
                0x0000000008002394       0x90 build/stm32h7xx_hal_timebase_tim.o
                0x0000000008002394                HAL_InitTick
 .text.HAL_NVIC_SetPriorityGrouping
                0x0000000008002424       0x24 build/stm32h7xx_hal_cortex.o
                0x0000000008002424                HAL_NVIC_SetPriorityGrouping
 .text.HAL_NVIC_SetPriority
                0x0000000008002448       0x6c build/stm32h7xx_hal_cortex.o
                0x0000000008002448                HAL_NVIC_SetPriority
 .text.HAL_NVIC_EnableIRQ
                0x00000000080024b4       0x1c build/stm32h7xx_hal_cortex.o
                0x00000000080024b4                HAL_NVIC_EnableIRQ
 .text.HAL_RCC_OscConfig
                0x00000000080024d0      0x5ec build/stm32h7xx_hal_rcc.o
                0x00000000080024d0                HAL_RCC_OscConfig
 .text.HAL_RCC_GetSysClockFreq
                0x0000000008002abc      0x1f4 build/stm32h7xx_hal_rcc.o
                0x0000000008002abc                HAL_RCC_GetSysClockFreq
 .text.HAL_RCC_ClockConfig
                0x0000000008002cb0      0x294 build/stm32h7xx_hal_rcc.o
                0x0000000008002cb0                HAL_RCC_ClockConfig
 .text.HAL_RCC_GetHCLKFreq
                0x0000000008002f44       0x44 build/stm32h7xx_hal_rcc.o
                0x0000000008002f44                HAL_RCC_GetHCLKFreq
 .text.HAL_RCC_GetPCLK2Freq
                0x0000000008002f88       0x24 build/stm32h7xx_hal_rcc.o
                0x0000000008002f88                HAL_RCC_GetPCLK2Freq
 .text.HAL_RCC_GetClockConfig
                0x0000000008002fac       0x54 build/stm32h7xx_hal_rcc.o
                0x0000000008002fac                HAL_RCC_GetClockConfig
 .text.HAL_GPIO_Init
                0x0000000008003000      0x214 build/stm32h7xx_hal_gpio.o
                0x0000000008003000                HAL_GPIO_Init
 .text.HAL_GPIO_WritePin
                0x0000000008003214        0xc build/stm32h7xx_hal_gpio.o
                0x0000000008003214                HAL_GPIO_WritePin
 .text.HAL_GPIO_TogglePin
                0x0000000008003220       0x12 build/stm32h7xx_hal_gpio.o
                0x0000000008003220                HAL_GPIO_TogglePin
 *fill*         0x0000000008003232        0x2 
 .text.HAL_PWREx_ConfigSupply
                0x0000000008003234       0x54 build/stm32h7xx_hal_pwr_ex.o
                0x0000000008003234                HAL_PWREx_ConfigSupply
 .text.HAL_Init
                0x0000000008003288       0x5c build/stm32h7xx_hal.o
                0x0000000008003288                HAL_Init
 .text.HAL_IncTick
                0x00000000080032e4       0x18 build/stm32h7xx_hal.o
                0x00000000080032e4                HAL_IncTick
 .text.HAL_GetTick
                0x00000000080032fc        0xc build/stm32h7xx_hal.o
                0x00000000080032fc                HAL_GetTick
 .text.HAL_TIM_Base_MspInit
                0x0000000008003308        0x2 build/stm32h7xx_hal_tim.o
                0x0000000008003308                HAL_TIM_Base_MspInit
 *fill*         0x000000000800330a        0x2 
 .text.HAL_TIM_Base_Start_IT
                0x000000000800330c       0xa0 build/stm32h7xx_hal_tim.o
                0x000000000800330c                HAL_TIM_Base_Start_IT
 .text.HAL_TIM_OC_DelayElapsedCallback
                0x00000000080033ac        0x2 build/stm32h7xx_hal_tim.o
                0x00000000080033ac                HAL_TIM_OC_DelayElapsedCallback
 .text.HAL_TIM_IC_CaptureCallback
                0x00000000080033ae        0x2 build/stm32h7xx_hal_tim.o
                0x00000000080033ae                HAL_TIM_IC_CaptureCallback
 .text.HAL_TIM_PWM_PulseFinishedCallback
                0x00000000080033b0        0x2 build/stm32h7xx_hal_tim.o
                0x00000000080033b0                HAL_TIM_PWM_PulseFinishedCallback
 .text.HAL_TIM_TriggerCallback
                0x00000000080033b2        0x2 build/stm32h7xx_hal_tim.o
                0x00000000080033b2                HAL_TIM_TriggerCallback
 .text.HAL_TIM_IRQHandler
                0x00000000080033b4      0x19a build/stm32h7xx_hal_tim.o
                0x00000000080033b4                HAL_TIM_IRQHandler
 *fill*         0x000000000800354e        0x2 
 .text.TIM_Base_SetConfig
                0x0000000008003550      0x120 build/stm32h7xx_hal_tim.o
                0x0000000008003550                TIM_Base_SetConfig
 .text.HAL_TIM_Base_Init
                0x0000000008003670       0x60 build/stm32h7xx_hal_tim.o
                0x0000000008003670                HAL_TIM_Base_Init
 .text.HAL_TIMEx_CommutCallback
                0x00000000080036d0        0x2 build/stm32h7xx_hal_tim_ex.o
                0x00000000080036d0                HAL_TIMEx_CommutCallback
 .text.HAL_TIMEx_BreakCallback
                0x00000000080036d2        0x2 build/stm32h7xx_hal_tim_ex.o
                0x00000000080036d2                HAL_TIMEx_BreakCallback
 .text.HAL_TIMEx_Break2Callback
                0x00000000080036d4        0x2 build/stm32h7xx_hal_tim_ex.o
                0x00000000080036d4                HAL_TIMEx_Break2Callback
 *fill*         0x00000000080036d6        0x2 
 .text.SystemInit
                0x00000000080036d8       0xac build/system_stm32h7xx.o
                0x00000000080036d8                SystemInit
 .text.vListInitialise
                0x0000000008003784       0x16 build/list.o
                0x0000000008003784                vListInitialise
 .text.vListInitialiseItem
                0x000000000800379a        0x6 build/list.o
                0x000000000800379a                vListInitialiseItem
 .text.vListInsertEnd
                0x00000000080037a0       0x16 build/list.o
                0x00000000080037a0                vListInsertEnd
 .text.vListInsert
                0x00000000080037b6       0x32 build/list.o
                0x00000000080037b6                vListInsert
 .text.uxListRemove
                0x00000000080037e8       0x26 build/list.o
                0x00000000080037e8                uxListRemove
 .text.prvIsQueueFull
                0x000000000800380e       0x1e build/queue.o
 .text.prvIsQueueEmpty
                0x000000000800382c       0x1a build/queue.o
 .text.prvCopyDataToQueue
                0x0000000008003846       0x76 build/queue.o
 .text.prvCopyDataFromQueue
                0x00000000080038bc       0x24 build/queue.o
 .text.prvUnlockQueue
                0x00000000080038e0       0x6e build/queue.o
 .text.xQueueGenericReset
                0x000000000800394e       0x84 build/queue.o
                0x000000000800394e                xQueueGenericReset
 .text.prvInitialiseNewQueue
                0x00000000080039d2       0x22 build/queue.o
 .text.xQueueGenericCreateStatic
                0x00000000080039f4       0xa6 build/queue.o
                0x00000000080039f4                xQueueGenericCreateStatic
 .text.xQueueGenericSend
                0x0000000008003a9a      0x188 build/queue.o
                0x0000000008003a9a                xQueueGenericSend
 .text.xQueueGenericSendFromISR
                0x0000000008003c22       0xce build/queue.o
                0x0000000008003c22                xQueueGenericSendFromISR
 .text.xQueueReceive
                0x0000000008003cf0      0x15e build/queue.o
                0x0000000008003cf0                xQueueReceive
 *fill*         0x0000000008003e4e        0x2 
 .text.vQueueAddToRegistry
                0x0000000008003e50       0x28 build/queue.o
                0x0000000008003e50                vQueueAddToRegistry
 .text.vQueueWaitForMessageRestricted
                0x0000000008003e78       0x52 build/queue.o
                0x0000000008003e78                vQueueWaitForMessageRestricted
 *fill*         0x0000000008003eca        0x2 
 .text.prvResetNextTaskUnblockTime
                0x0000000008003ecc       0x2c build/tasks.o
 .text.prvInitialiseNewTask
                0x0000000008003ef8       0xa6 build/tasks.o
 *fill*         0x0000000008003f9e        0x2 
 .text.prvInitialiseTaskLists
                0x0000000008003fa0       0x68 build/tasks.o
 .text.prvAddNewTaskToReadyList
                0x0000000008004008       0xac build/tasks.o
 .text.prvDeleteTCB
                0x00000000080040b4       0x38 build/tasks.o
 .text.prvCheckTasksWaitingTermination
                0x00000000080040ec       0x4c build/tasks.o
 .text.prvIdleTask
                0x0000000008004138       0x28 build/tasks.o
 .text.prvAddCurrentTaskToDelayedList
                0x0000000008004160       0x84 build/tasks.o
 .text.xTaskCreateStatic
                0x00000000080041e4       0x76 build/tasks.o
                0x00000000080041e4                xTaskCreateStatic
 .text.xTaskCreate
                0x000000000800425a       0x68 build/tasks.o
                0x000000000800425a                xTaskCreate
 *fill*         0x00000000080042c2        0x2 
 .text.vTaskStartScheduler
                0x00000000080042c4       0x9c build/tasks.o
                0x00000000080042c4                vTaskStartScheduler
 .text.vTaskSuspendAll
                0x0000000008004360       0x10 build/tasks.o
                0x0000000008004360                vTaskSuspendAll
 .text.xTaskGetTickCount
                0x0000000008004370        0xc build/tasks.o
                0x0000000008004370                xTaskGetTickCount
 .text.xTaskIncrementTick
                0x000000000800437c      0x118 build/tasks.o
                0x000000000800437c                xTaskIncrementTick
 .text.xTaskResumeAll
                0x0000000008004494       0xf8 build/tasks.o
                0x0000000008004494                xTaskResumeAll
 .text.vTaskDelay
                0x000000000800458c       0x4c build/tasks.o
                0x000000000800458c                vTaskDelay
 .text.vTaskSwitchContext
                0x00000000080045d8       0x94 build/tasks.o
                0x00000000080045d8                vTaskSwitchContext
 .text.vTaskPlaceOnEventList
                0x000000000800466c       0x30 build/tasks.o
                0x000000000800466c                vTaskPlaceOnEventList
 .text.vTaskPlaceOnEventListRestricted
                0x000000000800469c       0x38 build/tasks.o
                0x000000000800469c                vTaskPlaceOnEventListRestricted
 .text.xTaskRemoveFromEventList
                0x00000000080046d4       0x8c build/tasks.o
                0x00000000080046d4                xTaskRemoveFromEventList
 .text.vTaskInternalSetTimeOutState
                0x0000000008004760       0x18 build/tasks.o
                0x0000000008004760                vTaskInternalSetTimeOutState
 .text.xTaskCheckForTimeOut
                0x0000000008004778       0x84 build/tasks.o
                0x0000000008004778                xTaskCheckForTimeOut
 .text.vTaskMissedYield
                0x00000000080047fc        0xc build/tasks.o
                0x00000000080047fc                vTaskMissedYield
 .text.xTaskGetSchedulerState
                0x0000000008004808       0x20 build/tasks.o
                0x0000000008004808                xTaskGetSchedulerState
 .text.xTaskPriorityDisinherit
                0x0000000008004828       0x90 build/tasks.o
                0x0000000008004828                xTaskPriorityDisinherit
 .text.prvGetNextExpireTime
                0x00000000080048b8       0x20 build/timers.o
 .text.prvInsertTimerInActiveList
                0x00000000080048d8       0x50 build/timers.o
 .text.prvCheckForValidListAndQueue
                0x0000000008004928       0x70 build/timers.o
 .text.xTimerCreateTimerTask
                0x0000000008004998       0x64 build/timers.o
                0x0000000008004998                xTimerCreateTimerTask
 .text.xTimerGenericCommand
                0x00000000080049fc       0x6c build/timers.o
                0x00000000080049fc                xTimerGenericCommand
 .text.prvSwitchTimerLists
                0x0000000008004a68       0x7c build/timers.o
 .text.prvSampleTimeNow
                0x0000000008004ae4       0x2c build/timers.o
 .text.prvProcessExpiredTimer
                0x0000000008004b10       0x6c build/timers.o
 .text.prvProcessTimerOrBlockTask
                0x0000000008004b7c       0x78 build/timers.o
 .text.prvProcessReceivedCommands
                0x0000000008004bf4      0x10c build/timers.o
 .text.prvTimerTask
                0x0000000008004d00       0x16 build/timers.o
 .text.SysTick_Handler
                0x0000000008004d16       0x18 build/cmsis_os2.o
                0x0000000008004d16                SysTick_Handler
 *fill*         0x0000000008004d2e        0x2 
 .text.osKernelInitialize
                0x0000000008004d30       0x24 build/cmsis_os2.o
                0x0000000008004d30                osKernelInitialize
 .text.osKernelStart
                0x0000000008004d54       0x38 build/cmsis_os2.o
                0x0000000008004d54                osKernelStart
 .text.osThreadNew
                0x0000000008004d8c       0xbc build/cmsis_os2.o
                0x0000000008004d8c                osThreadNew
 .text.osDelay  0x0000000008004e48       0x1c build/cmsis_os2.o
                0x0000000008004e48                osDelay
 .text.vApplicationGetIdleTaskMemory
                0x0000000008004e64       0x18 build/cmsis_os2.o
                0x0000000008004e64                vApplicationGetIdleTaskMemory
 .text.vApplicationGetTimerTaskMemory
                0x0000000008004e7c       0x18 build/cmsis_os2.o
                0x0000000008004e7c                vApplicationGetTimerTaskMemory
 .text.prvHeapInit
                0x0000000008004e94       0x64 build/heap_4.o
 .text.prvInsertBlockIntoFreeList
                0x0000000008004ef8       0x64 build/heap_4.o
 .text.pvPortMalloc
                0x0000000008004f5c       0xfc build/heap_4.o
                0x0000000008004f5c                pvPortMalloc
 .text.vPortFree
                0x0000000008005058       0x7c build/heap_4.o
                0x0000000008005058                vPortFree
 .text.prvTaskExitError
                0x00000000080050d4       0x40 build/port.o
 .text.prvPortStartFirstTask
                0x0000000008005114       0x28 build/port.o
 .text.vPortEnableVFP
                0x000000000800513c       0x14 build/port.o
 .text.pxPortInitialiseStack
                0x0000000008005150       0x2c build/port.o
                0x0000000008005150                pxPortInitialiseStack
 *fill*         0x000000000800517c        0x4 
 .text.SVC_Handler
                0x0000000008005180       0x24 build/port.o
                0x0000000008005180                SVC_Handler
 .text.vPortEnterCritical
                0x00000000080051a4       0x44 build/port.o
                0x00000000080051a4                vPortEnterCritical
 .text.vPortExitCritical
                0x00000000080051e8       0x2c build/port.o
                0x00000000080051e8                vPortExitCritical
 *fill*         0x0000000008005214        0xc 
 .text.PendSV_Handler
                0x0000000008005220       0x64 build/port.o
                0x0000000008005220                PendSV_Handler
 .text.xPortSysTickHandler
                0x0000000008005284       0x2c build/port.o
                0x0000000008005284                xPortSysTickHandler
 .text.vPortSetupTimerInterrupt
                0x00000000080052b0       0x28 build/port.o
                0x00000000080052b0                vPortSetupTimerInterrupt
 .text.xPortStartScheduler
                0x00000000080052d8      0x118 build/port.o
                0x00000000080052d8                xPortStartScheduler
 .text.vPortValidateInterruptPriority
                0x00000000080053f0       0x5c build/port.o
                0x00000000080053f0                vPortValidateInterruptPriority
 .text._ZN8STM32LED3LEDC2EP12GPIO_TypeDeft
                0x000000000800544c        0xa build/LED.o
                0x000000000800544c                STM32LED::LED::LED(GPIO_TypeDef*, unsigned short)
                0x000000000800544c                STM32LED::LED::LED(GPIO_TypeDef*, unsigned short)
 .text._ZN8STM32LED3LED6toggleEv
                0x0000000008005456       0x18 build/LED.o
                0x0000000008005456                STM32LED::LED::toggle()
 *fill*         0x000000000800546e        0x2 
 .text._ZL12MX_GPIO_Initv
                0x0000000008005470       0xc4 build/main.o
 .text._Z16StartDefaultTaskPv
                0x0000000008005534       0x28 build/main.o
                0x0000000008005534                StartDefaultTask(void*)
 .text.HAL_TIM_PeriodElapsedCallback
                0x000000000800555c       0x18 build/main.o
                0x000000000800555c                HAL_TIM_PeriodElapsedCallback
 .text.Error_Handler
                0x0000000008005574        0x4 build/main.o
                0x0000000008005574                Error_Handler
 .text._Z18SystemClock_Configv
                0x0000000008005578       0xac build/main.o
                0x0000000008005578                SystemClock_Config()
 .text.main     0x0000000008005624       0x84 build/main.o
                0x0000000008005624                main
 .text.Reset_Handler
                0x00000000080056a8       0x50 build/startup_stm32h733xx.o
                0x00000000080056a8                Reset_Handler
 .text.Default_Handler
                0x00000000080056f8        0x2 build/startup_stm32h733xx.o
                0x00000000080056f8                RTC_Alarm_IRQHandler
                0x00000000080056f8                HASH_RNG_IRQHandler
                0x00000000080056f8                EXTI2_IRQHandler
                0x00000000080056f8                TIM8_CC_IRQHandler
                0x00000000080056f8                UART8_IRQHandler
                0x00000000080056f8                SPI4_IRQHandler
                0x00000000080056f8                FDCAN3_IT0_IRQHandler
                0x00000000080056f8                TIM1_CC_IRQHandler
                0x00000000080056f8                BDMA_Channel6_IRQHandler
                0x00000000080056f8                DMA2_Stream5_IRQHandler
                0x00000000080056f8                DMA1_Stream5_IRQHandler
                0x00000000080056f8                CORDIC_IRQHandler
                0x00000000080056f8                BDMA_Channel1_IRQHandler
                0x00000000080056f8                TAMP_STAMP_IRQHandler
                0x00000000080056f8                EXTI3_IRQHandler
                0x00000000080056f8                LPTIM4_IRQHandler
                0x00000000080056f8                TIM8_TRG_COM_TIM14_IRQHandler
                0x00000000080056f8                LPTIM2_IRQHandler
                0x00000000080056f8                DFSDM1_FLT1_IRQHandler
                0x00000000080056f8                DMAMUX2_OVR_IRQHandler
                0x00000000080056f8                TIM8_UP_TIM13_IRQHandler
                0x00000000080056f8                I2C3_ER_IRQHandler
                0x00000000080056f8                DFSDM1_FLT2_IRQHandler
                0x00000000080056f8                I2C5_EV_IRQHandler
                0x00000000080056f8                USART10_IRQHandler
                0x00000000080056f8                MDMA_IRQHandler
                0x00000000080056f8                LPTIM3_IRQHandler
                0x00000000080056f8                HSEM1_IRQHandler
                0x00000000080056f8                EXTI0_IRQHandler
                0x00000000080056f8                I2C2_EV_IRQHandler
                0x00000000080056f8                DMA1_Stream2_IRQHandler
                0x00000000080056f8                FPU_IRQHandler
                0x00000000080056f8                OTG_HS_WKUP_IRQHandler
                0x00000000080056f8                FDCAN1_IT1_IRQHandler
                0x00000000080056f8                LTDC_ER_IRQHandler
                0x00000000080056f8                DMA2_Stream2_IRQHandler
                0x00000000080056f8                SPI1_IRQHandler
                0x00000000080056f8                OCTOSPI1_IRQHandler
                0x00000000080056f8                TIM6_DAC_IRQHandler
                0x00000000080056f8                DMA2_Stream3_IRQHandler
                0x00000000080056f8                OCTOSPI2_IRQHandler
                0x00000000080056f8                DFSDM1_FLT3_IRQHandler
                0x00000000080056f8                TIM23_IRQHandler
                0x00000000080056f8                USART6_IRQHandler
                0x00000000080056f8                TIM17_IRQHandler
                0x00000000080056f8                USART3_IRQHandler
                0x00000000080056f8                BDMA_Channel7_IRQHandler
                0x00000000080056f8                CRYP_IRQHandler
                0x00000000080056f8                LPTIM5_IRQHandler
                0x00000000080056f8                UART5_IRQHandler
                0x00000000080056f8                ADC3_IRQHandler
                0x00000000080056f8                DMA2_Stream0_IRQHandler
                0x00000000080056f8                TIM4_IRQHandler
                0x00000000080056f8                BDMA_Channel2_IRQHandler
                0x00000000080056f8                I2C1_EV_IRQHandler
                0x00000000080056f8                DMA1_Stream6_IRQHandler
                0x00000000080056f8                DMAMUX1_OVR_IRQHandler
                0x00000000080056f8                DMA1_Stream1_IRQHandler
                0x00000000080056f8                TIM16_IRQHandler
                0x00000000080056f8                UART4_IRQHandler
                0x00000000080056f8                BDMA_Channel5_IRQHandler
                0x00000000080056f8                TIM3_IRQHandler
                0x00000000080056f8                RCC_IRQHandler
                0x00000000080056f8                UART9_IRQHandler
                0x00000000080056f8                TIM8_BRK_TIM12_IRQHandler
                0x00000000080056f8                TIM1_TRG_COM_IRQHandler
                0x00000000080056f8                Default_Handler
                0x00000000080056f8                ECC_IRQHandler
                0x00000000080056f8                FMAC_IRQHandler
                0x00000000080056f8                CEC_IRQHandler
                0x00000000080056f8                EXTI15_10_IRQHandler
                0x00000000080056f8                BDMA_Channel0_IRQHandler
                0x00000000080056f8                ADC_IRQHandler
                0x00000000080056f8                I2C5_ER_IRQHandler
                0x00000000080056f8                OTFDEC1_IRQHandler
                0x00000000080056f8                DMA1_Stream7_IRQHandler
                0x00000000080056f8                SPI5_IRQHandler
                0x00000000080056f8                TIM7_IRQHandler
                0x00000000080056f8                FDCAN3_IT1_IRQHandler
                0x00000000080056f8                SDMMC1_IRQHandler
                0x00000000080056f8                TIM5_IRQHandler
                0x00000000080056f8                DMA2_Stream7_IRQHandler
                0x00000000080056f8                TIM15_IRQHandler
                0x00000000080056f8                PVD_AVD_IRQHandler
                0x00000000080056f8                I2C3_EV_IRQHandler
                0x00000000080056f8                EXTI9_5_IRQHandler
                0x00000000080056f8                RTC_WKUP_IRQHandler
                0x00000000080056f8                LTDC_IRQHandler
                0x00000000080056f8                ETH_WKUP_IRQHandler
                0x00000000080056f8                SPDIF_RX_IRQHandler
                0x00000000080056f8                SPI2_IRQHandler
                0x00000000080056f8                OTG_HS_EP1_IN_IRQHandler
                0x00000000080056f8                DMA1_Stream0_IRQHandler
                0x00000000080056f8                OTFDEC2_IRQHandler
                0x00000000080056f8                TIM24_IRQHandler
                0x00000000080056f8                CRS_IRQHandler
                0x00000000080056f8                EXTI4_IRQHandler
                0x00000000080056f8                FDCAN2_IT1_IRQHandler
                0x00000000080056f8                ETH_IRQHandler
                0x00000000080056f8                BDMA_Channel4_IRQHandler
                0x00000000080056f8                OTG_HS_EP1_OUT_IRQHandler
                0x00000000080056f8                WWDG_IRQHandler
                0x00000000080056f8                SPI6_IRQHandler
                0x00000000080056f8                MDIOS_IRQHandler
                0x00000000080056f8                I2C4_EV_IRQHandler
                0x00000000080056f8                FDCAN2_IT0_IRQHandler
                0x00000000080056f8                LPUART1_IRQHandler
                0x00000000080056f8                FDCAN1_IT0_IRQHandler
                0x00000000080056f8                TIM2_IRQHandler
                0x00000000080056f8                OTG_HS_IRQHandler
                0x00000000080056f8                DMA2D_IRQHandler
                0x00000000080056f8                TIM1_BRK_IRQHandler
                0x00000000080056f8                EXTI1_IRQHandler
                0x00000000080056f8                SDMMC2_IRQHandler
                0x00000000080056f8                BDMA_Channel3_IRQHandler
                0x00000000080056f8                DTS_IRQHandler
                0x00000000080056f8                UART7_IRQHandler
                0x00000000080056f8                MDIOS_WKUP_IRQHandler
                0x00000000080056f8                USART2_IRQHandler
                0x00000000080056f8                DFSDM1_FLT0_IRQHandler
                0x00000000080056f8                SAI4_IRQHandler
                0x00000000080056f8                I2C2_ER_IRQHandler
                0x00000000080056f8                DMA2_Stream1_IRQHandler
                0x00000000080056f8                FLASH_IRQHandler
                0x00000000080056f8                DMA2_Stream4_IRQHandler
                0x00000000080056f8                USART1_IRQHandler
                0x00000000080056f8                SPI3_IRQHandler
                0x00000000080056f8                WAKEUP_PIN_IRQHandler
                0x00000000080056f8                DMA1_Stream4_IRQHandler
                0x00000000080056f8                I2C1_ER_IRQHandler
                0x00000000080056f8                FMC_IRQHandler
                0x00000000080056f8                FDCAN_CAL_IRQHandler
                0x00000000080056f8                SWPMI1_IRQHandler
                0x00000000080056f8                COMP1_IRQHandler
                0x00000000080056f8                LPTIM1_IRQHandler
                0x00000000080056f8                DCMI_PSSI_IRQHandler
                0x00000000080056f8                I2C4_ER_IRQHandler
                0x00000000080056f8                DMA2_Stream6_IRQHandler
                0x00000000080056f8                SAI1_IRQHandler
                0x00000000080056f8                DMA1_Stream3_IRQHandler
 *fill*         0x00000000080056fa        0x2 
 .text._ZdlPvj  0x00000000080056fc        0x4 /usr/lib/gcc/arm-none-eabi/10.3.1/../../../arm-none-eabi/lib/thumb/v7e-m+dp/hard/libstdc++.a(del_ops.o)
                0x00000000080056fc                operator delete(void*, unsigned int)
 .text.__cxa_end_cleanup
                0x0000000008005700        0xc /usr/lib/gcc/arm-none-eabi/10.3.1/../../../arm-none-eabi/lib/thumb/v7e-m+dp/hard/libstdc++.a(eh_arm.o)
                0x0000000008005700                __cxa_end_cleanup
 .text.__cxa_type_match
                0x000000000800570c       0xb4 /usr/lib/gcc/arm-none-eabi/10.3.1/../../../arm-none-eabi/lib/thumb/v7e-m+dp/hard/libstdc++.a(eh_arm.o)
                0x000000000800570c                __cxa_type_match
 .text.__cxa_begin_cleanup
                0x00000000080057c0       0x64 /usr/lib/gcc/arm-none-eabi/10.3.1/../../../arm-none-eabi/lib/thumb/v7e-m+dp/hard/libstdc++.a(eh_arm.o)
                0x00000000080057c0                __cxa_begin_cleanup
 .text.__gnu_end_cleanup
                0x0000000008005824       0x70 /usr/lib/gcc/arm-none-eabi/10.3.1/../../../arm-none-eabi/lib/thumb/v7e-m+dp/hard/libstdc++.a(eh_arm.o)
                0x0000000008005824                __gnu_end_cleanup
 .text._ZNSt9exceptionD2Ev
                0x0000000008005894        0x4 /usr/lib/gcc/arm-none-eabi/10.3.1/../../../arm-none-eabi/lib/thumb/v7e-m+dp/hard/libstdc++.a(eh_exception.o)
                0x0000000008005894                std::exception::~exception()
                0x0000000008005894                std::exception::~exception()
 .text._ZNSt13bad_exceptionD2Ev
                0x0000000008005898        0x4 /usr/lib/gcc/arm-none-eabi/10.3.1/../../../arm-none-eabi/lib/thumb/v7e-m+dp/hard/libstdc++.a(eh_exception.o)
                0x0000000008005898                std::bad_exception::~bad_exception()
                0x0000000008005898                std::bad_exception::~bad_exception()
 .text._ZNKSt13bad_exception4whatEv
                0x000000000800589c        0x8 /usr/lib/gcc/arm-none-eabi/10.3.1/../../../arm-none-eabi/lib/thumb/v7e-m+dp/hard/libstdc++.a(eh_exception.o)
                0x000000000800589c                transaction clone for std::bad_exception::what() const
                0x000000000800589c                std::bad_exception::what() const
 .text._ZNSt13bad_exceptionD0Ev
                0x00000000080058a4       0x10 /usr/lib/gcc/arm-none-eabi/10.3.1/../../../arm-none-eabi/lib/thumb/v7e-m+dp/hard/libstdc++.a(eh_exception.o)
                0x00000000080058a4                std::bad_exception::~bad_exception()
 .text.__cxa_get_globals_fast
                0x00000000080058b4        0x8 /usr/lib/gcc/arm-none-eabi/10.3.1/../../../arm-none-eabi/lib/thumb/v7e-m+dp/hard/libstdc++.a(eh_globals.o)
                0x00000000080058b4                __cxa_get_globals_fast
 .text.__cxa_get_globals
                0x00000000080058bc        0x8 /usr/lib/gcc/arm-none-eabi/10.3.1/../../../arm-none-eabi/lib/thumb/v7e-m+dp/hard/libstdc++.a(eh_globals.o)
                0x00000000080058bc                __cxa_get_globals
 .text._ZL28read_encoded_value_with_basehjPKhPj
                0x00000000080058c4       0xc0 /usr/lib/gcc/arm-none-eabi/10.3.1/../../../arm-none-eabi/lib/thumb/v7e-m+dp/hard/libstdc++.a(eh_personality.o)
 .text._ZL21base_of_encoded_valuehP15_Unwind_Context
                0x0000000008005984       0x50 /usr/lib/gcc/arm-none-eabi/10.3.1/../../../arm-none-eabi/lib/thumb/v7e-m+dp/hard/libstdc++.a(eh_personality.o)
 .text._ZL17parse_lsda_headerP15_Unwind_ContextPKhP16lsda_header_info
                0x00000000080059d4       0x94 /usr/lib/gcc/arm-none-eabi/10.3.1/../../../arm-none-eabi/lib/thumb/v7e-m+dp/hard/libstdc++.a(eh_personality.o)
 .text.__gxx_personality_v0
                0x0000000008005a68      0x4a8 /usr/lib/gcc/arm-none-eabi/10.3.1/../../../arm-none-eabi/lib/thumb/v7e-m+dp/hard/libstdc++.a(eh_personality.o)
                0x0000000008005a68                __gxx_personality_v0
 .text._ZN10__cxxabiv111__terminateEPFvvE
                0x0000000008005f10       0x28 /usr/lib/gcc/arm-none-eabi/10.3.1/../../../arm-none-eabi/lib/thumb/v7e-m+dp/hard/libstdc++.a(eh_terminate.o)
                0x0000000008005f10                __cxxabiv1::__terminate(void (*)())
 .text._ZSt9terminatev
                0x0000000008005f38       0x14 /usr/lib/gcc/arm-none-eabi/10.3.1/../../../arm-none-eabi/lib/thumb/v7e-m+dp/hard/libstdc++.a(eh_terminate.o)
                0x0000000008005f38                std::terminate()
 .text._ZN10__cxxabiv112__unexpectedEPFvvE
                0x0000000008005f4c        0x8 /usr/lib/gcc/arm-none-eabi/10.3.1/../../../arm-none-eabi/lib/thumb/v7e-m+dp/hard/libstdc++.a(eh_terminate.o)
                0x0000000008005f4c                __cxxabiv1::__unexpected(void (*)())
 .text._ZSt10unexpectedv
                0x0000000008005f54       0x14 /usr/lib/gcc/arm-none-eabi/10.3.1/../../../arm-none-eabi/lib/thumb/v7e-m+dp/hard/libstdc++.a(eh_terminate.o)
                0x0000000008005f54                std::unexpected()
 .text._ZSt13get_terminatev
                0x0000000008005f68       0x10 /usr/lib/gcc/arm-none-eabi/10.3.1/../../../arm-none-eabi/lib/thumb/v7e-m+dp/hard/libstdc++.a(eh_terminate.o)
                0x0000000008005f68                std::get_terminate()
 .text._ZSt14get_unexpectedv
                0x0000000008005f78       0x10 /usr/lib/gcc/arm-none-eabi/10.3.1/../../../arm-none-eabi/lib/thumb/v7e-m+dp/hard/libstdc++.a(eh_terminate.o)
                0x0000000008005f78                std::get_unexpected()
 .text._Znwj    0x0000000008005f88       0x3c /usr/lib/gcc/arm-none-eabi/10.3.1/../../../arm-none-eabi/lib/thumb/v7e-m+dp/hard/libstdc++.a(new_op.o)
                0x0000000008005f88                operator new(unsigned int)
 .text._ZN10__cxxabiv120__si_class_type_infoD2Ev
                0x0000000008005fc4       0x14 /usr/lib/gcc/arm-none-eabi/10.3.1/../../../arm-none-eabi/lib/thumb/v7e-m+dp/hard/libstdc++.a(si_class_type_info.o)
                0x0000000008005fc4                __cxxabiv1::__si_class_type_info::~__si_class_type_info()
                0x0000000008005fc4                __cxxabiv1::__si_class_type_info::~__si_class_type_info()
 .text._ZN10__cxxabiv120__si_class_type_infoD0Ev
                0x0000000008005fd8       0x1c /usr/lib/gcc/arm-none-eabi/10.3.1/../../../arm-none-eabi/lib/thumb/v7e-m+dp/hard/libstdc++.a(si_class_type_info.o)
                0x0000000008005fd8                __cxxabiv1::__si_class_type_info::~__si_class_type_info()
 .text._ZNK10__cxxabiv120__si_class_type_info20__do_find_public_srcEiPKvPKNS_17__class_type_infoES2_
                0x0000000008005ff4       0x3c /usr/lib/gcc/arm-none-eabi/10.3.1/../../../arm-none-eabi/lib/thumb/v7e-m+dp/hard/libstdc++.a(si_class_type_info.o)
                0x0000000008005ff4                __cxxabiv1::__si_class_type_info::__do_find_public_src(int, void const*, __cxxabiv1::__class_type_info const*, void const*) const
 .text._ZNK10__cxxabiv120__si_class_type_info12__do_dyncastEiNS_17__class_type_info10__sub_kindEPKS1_PKvS4_S6_RNS1_16__dyncast_resultE
                0x0000000008006030       0x80 /usr/lib/gcc/arm-none-eabi/10.3.1/../../../arm-none-eabi/lib/thumb/v7e-m+dp/hard/libstdc++.a(si_class_type_info.o)
                0x0000000008006030                __cxxabiv1::__si_class_type_info::__do_dyncast(int, __cxxabiv1::__class_type_info::__sub_kind, __cxxabiv1::__class_type_info const*, void const*, __cxxabiv1::__class_type_info const*, void const*, __cxxabiv1::__class_type_info::__dyncast_result&) const
 .text._ZNK10__cxxabiv120__si_class_type_info11__do_upcastEPKNS_17__class_type_infoEPKvRNS1_15__upcast_resultE
                0x00000000080060b0       0x2c /usr/lib/gcc/arm-none-eabi/10.3.1/../../../arm-none-eabi/lib/thumb/v7e-m+dp/hard/libstdc++.a(si_class_type_info.o)
                0x00000000080060b0                __cxxabiv1::__si_class_type_info::__do_upcast(__cxxabiv1::__class_type_info const*, void const*, __cxxabiv1::__class_type_info::__upcast_result&) const
 .text._ZNSt9type_infoD2Ev
                0x00000000080060dc        0x4 /usr/lib/gcc/arm-none-eabi/10.3.1/../../../arm-none-eabi/lib/thumb/v7e-m+dp/hard/libstdc++.a(tinfo.o)
                0x00000000080060dc                std::type_info::~type_info()
                0x00000000080060dc                std::type_info::~type_info()
 .text._ZNKSt9type_info14__is_pointer_pEv
                0x00000000080060e0        0x4 /usr/lib/gcc/arm-none-eabi/10.3.1/../../../arm-none-eabi/lib/thumb/v7e-m+dp/hard/libstdc++.a(tinfo.o)
                0x00000000080060e0                std::type_info::__is_function_p() const
                0x00000000080060e0                std::type_info::__is_pointer_p() const
 .text._ZNKSt9type_infoeqERKS_
                0x00000000080060e4       0x2c /usr/lib/gcc/arm-none-eabi/10.3.1/../../../arm-none-eabi/lib/thumb/v7e-m+dp/hard/libstdc++.a(tinfo.o)
                0x00000000080060e4                std::type_info::operator==(std::type_info const&) const
 .text._ZNKSt9bad_alloc4whatEv
                0x0000000008006110        0x8 /usr/lib/gcc/arm-none-eabi/10.3.1/../../../arm-none-eabi/lib/thumb/v7e-m+dp/hard/libstdc++.a(bad_alloc.o)
                0x0000000008006110                std::bad_alloc::what() const
 .text._ZNSt9bad_allocD2Ev
                0x0000000008006118       0x14 /usr/lib/gcc/arm-none-eabi/10.3.1/../../../arm-none-eabi/lib/thumb/v7e-m+dp/hard/libstdc++.a(bad_alloc.o)
                0x0000000008006118                std::bad_alloc::~bad_alloc()
                0x0000000008006118                std::bad_alloc::~bad_alloc()
 .text._ZNSt9bad_allocD0Ev
                0x000000000800612c       0x1c /usr/lib/gcc/arm-none-eabi/10.3.1/../../../arm-none-eabi/lib/thumb/v7e-m+dp/hard/libstdc++.a(bad_alloc.o)
                0x000000000800612c                std::bad_alloc::~bad_alloc()
 .text._ZNK10__cxxabiv117__class_type_info11__do_upcastEPKS0_PPv
                0x0000000008006148       0x34 /usr/lib/gcc/arm-none-eabi/10.3.1/../../../arm-none-eabi/lib/thumb/v7e-m+dp/hard/libstdc++.a(class_type_info.o)
                0x0000000008006148                __cxxabiv1::__class_type_info::__do_upcast(__cxxabiv1::__class_type_info const*, void**) const
 .text._ZNK10__cxxabiv117__class_type_info20__do_find_public_srcEiPKvPKS0_S2_
                0x000000000800617c        0xc /usr/lib/gcc/arm-none-eabi/10.3.1/../../../arm-none-eabi/lib/thumb/v7e-m+dp/hard/libstdc++.a(class_type_info.o)
                0x000000000800617c                __cxxabiv1::__class_type_info::__do_find_public_src(int, void const*, __cxxabiv1::__class_type_info const*, void const*) const
 .text._ZN10__cxxabiv117__class_type_infoD2Ev
                0x0000000008006188       0x14 /usr/lib/gcc/arm-none-eabi/10.3.1/../../../arm-none-eabi/lib/thumb/v7e-m+dp/hard/libstdc++.a(class_type_info.o)
                0x0000000008006188                __cxxabiv1::__class_type_info::~__class_type_info()
                0x0000000008006188                __cxxabiv1::__class_type_info::~__class_type_info()
 .text._ZN10__cxxabiv117__class_type_infoD0Ev
                0x000000000800619c       0x1c /usr/lib/gcc/arm-none-eabi/10.3.1/../../../arm-none-eabi/lib/thumb/v7e-m+dp/hard/libstdc++.a(class_type_info.o)
                0x000000000800619c                __cxxabiv1::__class_type_info::~__class_type_info()
 .text._ZNK10__cxxabiv117__class_type_info12__do_dyncastEiNS0_10__sub_kindEPKS0_PKvS3_S5_RNS0_16__dyncast_resultE
                0x00000000080061b8       0x44 /usr/lib/gcc/arm-none-eabi/10.3.1/../../../arm-none-eabi/lib/thumb/v7e-m+dp/hard/libstdc++.a(class_type_info.o)
                0x00000000080061b8                __cxxabiv1::__class_type_info::__do_dyncast(int, __cxxabiv1::__class_type_info::__sub_kind, __cxxabiv1::__class_type_info const*, void const*, __cxxabiv1::__class_type_info const*, void const*, __cxxabiv1::__class_type_info::__dyncast_result&) const
 .text._ZNK10__cxxabiv117__class_type_info11__do_upcastEPKS0_PKvRNS0_15__upcast_resultE
                0x00000000080061fc       0x1c /usr/lib/gcc/arm-none-eabi/10.3.1/../../../arm-none-eabi/lib/thumb/v7e-m+dp/hard/libstdc++.a(class_type_info.o)
                0x00000000080061fc                __cxxabiv1::__class_type_info::__do_upcast(__cxxabiv1::__class_type_info const*, void const*, __cxxabiv1::__class_type_info::__upcast_result&) const
 .text._ZNK10__cxxabiv117__class_type_info10__do_catchEPKSt9type_infoPPvj
                0x0000000008006218       0x2c /usr/lib/gcc/arm-none-eabi/10.3.1/../../../arm-none-eabi/lib/thumb/v7e-m+dp/hard/libstdc++.a(class_type_info.o)
                0x0000000008006218                __cxxabiv1::__class_type_info::__do_catch(std::type_info const*, void**, unsigned int) const
 .text._ZdlPv   0x0000000008006244        0x4 /usr/lib/gcc/arm-none-eabi/10.3.1/../../../arm-none-eabi/lib/thumb/v7e-m+dp/hard/libstdc++.a(del_op.o)
                0x0000000008006244                operator delete(void*)
 .text._ZN12_GLOBAL__N_14pool4freeEPv.constprop.0
                0x0000000008006248       0x88 /usr/lib/gcc/arm-none-eabi/10.3.1/../../../arm-none-eabi/lib/thumb/v7e-m+dp/hard/libstdc++.a(eh_alloc.o)
 .text._ZN12_GLOBAL__N_14pool8allocateEj.constprop.0
                0x00000000080062d0       0x58 /usr/lib/gcc/arm-none-eabi/10.3.1/../../../arm-none-eabi/lib/thumb/v7e-m+dp/hard/libstdc++.a(eh_alloc.o)
 .text.__cxa_allocate_exception
                0x0000000008006328       0x30 /usr/lib/gcc/arm-none-eabi/10.3.1/../../../arm-none-eabi/lib/thumb/v7e-m+dp/hard/libstdc++.a(eh_alloc.o)
                0x0000000008006328                __cxa_allocate_exception
 .text.__cxa_free_exception
                0x0000000008006358       0x20 /usr/lib/gcc/arm-none-eabi/10.3.1/../../../arm-none-eabi/lib/thumb/v7e-m+dp/hard/libstdc++.a(eh_alloc.o)
                0x0000000008006358                __cxa_free_exception
 .text.startup._GLOBAL__sub_I__ZN9__gnu_cxx9__freeresEv
                0x0000000008006378       0x28 /usr/lib/gcc/arm-none-eabi/10.3.1/../../../arm-none-eabi/lib/thumb/v7e-m+dp/hard/libstdc++.a(eh_alloc.o)
 .text._ZN10__cxxabiv1L24__is_gxx_exception_classEPc
                0x00000000080063a0       0x3c /usr/lib/gcc/arm-none-eabi/10.3.1/../../../arm-none-eabi/lib/thumb/v7e-m+dp/hard/libstdc++.a(eh_call.o)
 .text.__cxa_call_terminate
                0x00000000080063dc       0x20 /usr/lib/gcc/arm-none-eabi/10.3.1/../../../arm-none-eabi/lib/thumb/v7e-m+dp/hard/libstdc++.a(eh_call.o)
                0x00000000080063dc                __cxa_call_terminate
 .text.unlikely.__cxa_call_unexpected
                0x00000000080063fc       0xe4 /usr/lib/gcc/arm-none-eabi/10.3.1/../../../arm-none-eabi/lib/thumb/v7e-m+dp/hard/libstdc++.a(eh_call.o)
                0x00000000080063fc                __cxa_call_unexpected
 .text.__cxa_begin_catch
                0x00000000080064e0       0x7c /usr/lib/gcc/arm-none-eabi/10.3.1/../../../arm-none-eabi/lib/thumb/v7e-m+dp/hard/libstdc++.a(eh_catch.o)
                0x00000000080064e0                __cxa_begin_catch
 .text.__cxa_end_catch
                0x000000000800655c       0x8c /usr/lib/gcc/arm-none-eabi/10.3.1/../../../arm-none-eabi/lib/thumb/v7e-m+dp/hard/libstdc++.a(eh_catch.o)
                0x000000000800655c                __cxa_end_catch
 .text._ZL23__gxx_exception_cleanup19_Unwind_Reason_CodeP21_Unwind_Control_Block
                0x00000000080065e8       0x4c /usr/lib/gcc/arm-none-eabi/10.3.1/../../../arm-none-eabi/lib/thumb/v7e-m+dp/hard/libstdc++.a(eh_throw.o)
 .text.__cxa_init_primary_exception
                0x0000000008006634       0x58 /usr/lib/gcc/arm-none-eabi/10.3.1/../../../arm-none-eabi/lib/thumb/v7e-m+dp/hard/libstdc++.a(eh_throw.o)
                0x0000000008006634                __cxa_init_primary_exception
 .text.__cxa_throw
                0x000000000800668c       0x38 /usr/lib/gcc/arm-none-eabi/10.3.1/../../../arm-none-eabi/lib/thumb/v7e-m+dp/hard/libstdc++.a(eh_throw.o)
                0x000000000800668c                __cxa_throw
 .text.__cxa_rethrow
                0x00000000080066c4       0x70 /usr/lib/gcc/arm-none-eabi/10.3.1/../../../arm-none-eabi/lib/thumb/v7e-m+dp/hard/libstdc++.a(eh_throw.o)
                0x00000000080066c4                __cxa_rethrow
 .text._ZSt15get_new_handlerv
                0x0000000008006734       0x10 /usr/lib/gcc/arm-none-eabi/10.3.1/../../../arm-none-eabi/lib/thumb/v7e-m+dp/hard/libstdc++.a(new_handler.o)
                0x0000000008006734                std::get_new_handler()
 .text.startup  0x0000000008006744       0x14 /usr/lib/gcc/arm-none-eabi/10.3.1/../../../arm-none-eabi/lib/thumb/v7e-m+dp/hard/libc.a(lib_a-__call_atexit.o)
 .text.unlikely
                0x0000000008006758        0xc /usr/lib/gcc/arm-none-eabi/10.3.1/thumb/v7e-m+dp/hard/libgcc.a(pr-support.o)
                0x0000000008006758                _Unwind_GetDataRelBase
                0x000000000800675e                _Unwind_GetTextRelBase
 *(.glue_7)
 .glue_7        0x0000000008006764        0x0 linker stubs
 *(.glue_7t)
 .glue_7t       0x0000000008006764        0x0 linker stubs
 *(.eh_frame)
 .eh_frame      0x0000000008006764        0x0 /usr/lib/gcc/arm-none-eabi/10.3.1/thumb/v7e-m+dp/hard/crtbegin.o
 *(.init)
 .init          0x0000000008006764        0x4 /usr/lib/gcc/arm-none-eabi/10.3.1/thumb/v7e-m+dp/hard/crti.o
                0x0000000008006764                _init
 .init          0x0000000008006768        0x8 /usr/lib/gcc/arm-none-eabi/10.3.1/thumb/v7e-m+dp/hard/crtn.o
 *(.fini)
 .fini          0x0000000008006770        0x4 /usr/lib/gcc/arm-none-eabi/10.3.1/thumb/v7e-m+dp/hard/crti.o
                0x0000000008006770                _fini
 .fini          0x0000000008006774        0x8 /usr/lib/gcc/arm-none-eabi/10.3.1/thumb/v7e-m+dp/hard/crtn.o
                0x000000000800677c                . = ALIGN (0x4)
                0x000000000800677c                _etext = .

.vfp11_veneer   0x000000000800677c        0x0
 .vfp11_veneer  0x000000000800677c        0x0 linker stubs

.v4_bx          0x000000000800677c        0x0
 .v4_bx         0x000000000800677c        0x0 linker stubs

.iplt           0x000000000800677c        0x0
 .iplt          0x000000000800677c        0x0 /usr/lib/gcc/arm-none-eabi/10.3.1/thumb/v7e-m+dp/hard/crtbegin.o

.rodata         0x000000000800677c      0x224
                0x000000000800677c                . = ALIGN (0x4)
 *(.rodata)
 .rodata        0x000000000800677c        0x4 /usr/lib/gcc/arm-none-eabi/10.3.1/../../../arm-none-eabi/lib/thumb/v7e-m+dp/hard/libc.a(lib_a-impure.o)
                0x000000000800677c                _global_impure_ptr
 *(.rodata*)
 .rodata.D1CorePrescTable
                0x0000000008006780       0x10 build/system_stm32h7xx.o
                0x0000000008006780                D1CorePrescTable
 .rodata.vTaskStartScheduler.str1.4
                0x0000000008006790        0x5 build/tasks.o
 *fill*         0x0000000008006795        0x3 
 .rodata.prvCheckForValidListAndQueue.str1.4
                0x0000000008006798        0x5 build/timers.o
 *fill*         0x000000000800679d        0x3 
 .rodata.xTimerCreateTimerTask.str1.4
                0x00000000080067a0        0x8 build/timers.o
 .rodata.str1.4
                0x00000000080067a8        0xc build/main.o
 .rodata._ZL22defaultTask_attributes
                0x00000000080067b4       0x24 build/main.o
 .rodata._ZNKSt13bad_exception4whatEv.str1.4
                0x00000000080067d8       0x13 /usr/lib/gcc/arm-none-eabi/10.3.1/../../../arm-none-eabi/lib/thumb/v7e-m+dp/hard/libstdc++.a(eh_exception.o)
 *fill*         0x00000000080067eb        0x1 
 .rodata._ZTIN10__cxxabiv115__forced_unwindE
                0x00000000080067ec        0x8 /usr/lib/gcc/arm-none-eabi/10.3.1/../../../arm-none-eabi/lib/thumb/v7e-m+dp/hard/libstdc++.a(eh_exception.o)
                0x00000000080067ec                typeinfo for __cxxabiv1::__forced_unwind
 .rodata._ZTIN10__cxxabiv119__foreign_exceptionE
                0x00000000080067f4        0x8 /usr/lib/gcc/arm-none-eabi/10.3.1/../../../arm-none-eabi/lib/thumb/v7e-m+dp/hard/libstdc++.a(eh_exception.o)
                0x00000000080067f4                typeinfo for __cxxabiv1::__foreign_exception
 .rodata._ZTISt13bad_exception
                0x00000000080067fc        0xc /usr/lib/gcc/arm-none-eabi/10.3.1/../../../arm-none-eabi/lib/thumb/v7e-m+dp/hard/libstdc++.a(eh_exception.o)
                0x00000000080067fc                typeinfo for std::bad_exception
 .rodata._ZTISt9exception
                0x0000000008006808        0x8 /usr/lib/gcc/arm-none-eabi/10.3.1/../../../arm-none-eabi/lib/thumb/v7e-m+dp/hard/libstdc++.a(eh_exception.o)
                0x0000000008006808                typeinfo for std::exception
 .rodata._ZTSN10__cxxabiv115__forced_unwindE
                0x0000000008006810       0x20 /usr/lib/gcc/arm-none-eabi/10.3.1/../../../arm-none-eabi/lib/thumb/v7e-m+dp/hard/libstdc++.a(eh_exception.o)
                0x0000000008006810                typeinfo name for __cxxabiv1::__forced_unwind
 .rodata._ZTSN10__cxxabiv119__foreign_exceptionE
                0x0000000008006830       0x24 /usr/lib/gcc/arm-none-eabi/10.3.1/../../../arm-none-eabi/lib/thumb/v7e-m+dp/hard/libstdc++.a(eh_exception.o)
                0x0000000008006830                typeinfo name for __cxxabiv1::__foreign_exception
 .rodata._ZTSSt13bad_exception
                0x0000000008006854       0x12 /usr/lib/gcc/arm-none-eabi/10.3.1/../../../arm-none-eabi/lib/thumb/v7e-m+dp/hard/libstdc++.a(eh_exception.o)
                0x0000000008006854                typeinfo name for std::bad_exception
 *fill*         0x0000000008006866        0x2 
 .rodata._ZTSSt9exception
                0x0000000008006868        0xd /usr/lib/gcc/arm-none-eabi/10.3.1/../../../arm-none-eabi/lib/thumb/v7e-m+dp/hard/libstdc++.a(eh_exception.o)
                0x0000000008006868                typeinfo name for std::exception
 *fill*         0x0000000008006875        0x3 
 .rodata._ZTVSt13bad_exception
                0x0000000008006878       0x14 /usr/lib/gcc/arm-none-eabi/10.3.1/../../../arm-none-eabi/lib/thumb/v7e-m+dp/hard/libstdc++.a(eh_exception.o)
                0x0000000008006878                vtable for std::bad_exception
 .rodata._ZTIN10__cxxabiv120__si_class_type_infoE
                0x000000000800688c        0xc /usr/lib/gcc/arm-none-eabi/10.3.1/../../../arm-none-eabi/lib/thumb/v7e-m+dp/hard/libstdc++.a(si_class_type_info.o)
                0x000000000800688c                typeinfo for __cxxabiv1::__si_class_type_info
 .rodata._ZTSN10__cxxabiv120__si_class_type_infoE
                0x0000000008006898       0x25 /usr/lib/gcc/arm-none-eabi/10.3.1/../../../arm-none-eabi/lib/thumb/v7e-m+dp/hard/libstdc++.a(si_class_type_info.o)
                0x0000000008006898                typeinfo name for __cxxabiv1::__si_class_type_info
 *fill*         0x00000000080068bd        0x3 
 .rodata._ZTVN10__cxxabiv120__si_class_type_infoE
                0x00000000080068c0       0x2c /usr/lib/gcc/arm-none-eabi/10.3.1/../../../arm-none-eabi/lib/thumb/v7e-m+dp/hard/libstdc++.a(si_class_type_info.o)
                0x00000000080068c0                vtable for __cxxabiv1::__si_class_type_info
 .rodata._ZTISt9type_info
                0x00000000080068ec        0x8 /usr/lib/gcc/arm-none-eabi/10.3.1/../../../arm-none-eabi/lib/thumb/v7e-m+dp/hard/libstdc++.a(tinfo.o)
                0x00000000080068ec                typeinfo for std::type_info
 .rodata._ZTSSt9type_info
                0x00000000080068f4        0xd /usr/lib/gcc/arm-none-eabi/10.3.1/../../../arm-none-eabi/lib/thumb/v7e-m+dp/hard/libstdc++.a(tinfo.o)
                0x00000000080068f4                typeinfo name for std::type_info
 *fill*         0x0000000008006901        0x3 
 .rodata._ZNKSt9bad_alloc4whatEv.str1.4
                0x0000000008006904        0xf /usr/lib/gcc/arm-none-eabi/10.3.1/../../../arm-none-eabi/lib/thumb/v7e-m+dp/hard/libstdc++.a(bad_alloc.o)
 *fill*         0x0000000008006913        0x1 
 .rodata._ZTISt9bad_alloc
                0x0000000008006914        0xc /usr/lib/gcc/arm-none-eabi/10.3.1/../../../arm-none-eabi/lib/thumb/v7e-m+dp/hard/libstdc++.a(bad_alloc.o)
                0x0000000008006914                typeinfo for std::bad_alloc
 .rodata._ZTSSt9bad_alloc
                0x0000000008006920        0xd /usr/lib/gcc/arm-none-eabi/10.3.1/../../../arm-none-eabi/lib/thumb/v7e-m+dp/hard/libstdc++.a(bad_alloc.o)
                0x0000000008006920                typeinfo name for std::bad_alloc
 *fill*         0x000000000800692d        0x3 
 .rodata._ZTVSt9bad_alloc
                0x0000000008006930       0x14 /usr/lib/gcc/arm-none-eabi/10.3.1/../../../arm-none-eabi/lib/thumb/v7e-m+dp/hard/libstdc++.a(bad_alloc.o)
                0x0000000008006930                vtable for std::bad_alloc
 .rodata._ZTIN10__cxxabiv117__class_type_infoE
                0x0000000008006944        0xc /usr/lib/gcc/arm-none-eabi/10.3.1/../../../arm-none-eabi/lib/thumb/v7e-m+dp/hard/libstdc++.a(class_type_info.o)
                0x0000000008006944                typeinfo for __cxxabiv1::__class_type_info
 .rodata._ZTSN10__cxxabiv117__class_type_infoE
                0x0000000008006950       0x22 /usr/lib/gcc/arm-none-eabi/10.3.1/../../../arm-none-eabi/lib/thumb/v7e-m+dp/hard/libstdc++.a(class_type_info.o)
                0x0000000008006950                typeinfo name for __cxxabiv1::__class_type_info
 *fill*         0x0000000008006972        0x2 
 .rodata._ZTVN10__cxxabiv117__class_type_infoE
                0x0000000008006974       0x2c /usr/lib/gcc/arm-none-eabi/10.3.1/../../../arm-none-eabi/lib/thumb/v7e-m+dp/hard/libstdc++.a(class_type_info.o)
                0x0000000008006974                vtable for __cxxabiv1::__class_type_info
                0x00000000080069a0                . = ALIGN (0x4)

.ARM.extab      0x00000000080069a0       0xfc
 *(.ARM.extab* .gnu.linkonce.armextab.*)
 .ARM.extab.text._ZN8STM32LED3LED6toggleEv
                0x00000000080069a0        0xc build/LED.o
 .ARM.extab.text._Z16StartDefaultTaskPv
                0x00000000080069ac        0xc build/main.o
 .ARM.extab.text.HAL_TIM_PeriodElapsedCallback
                0x00000000080069b8        0xc build/main.o
 .ARM.extab.text.main
                0x00000000080069c4       0x20 build/main.o
 .ARM.extab.text._ZL21base_of_encoded_valuehP15_Unwind_Context
                0x00000000080069e4        0xc /usr/lib/gcc/arm-none-eabi/10.3.1/../../../arm-none-eabi/lib/thumb/v7e-m+dp/hard/libstdc++.a(eh_personality.o)
 .ARM.extab.text.__gxx_personality_v0
                0x00000000080069f0       0x24 /usr/lib/gcc/arm-none-eabi/10.3.1/../../../arm-none-eabi/lib/thumb/v7e-m+dp/hard/libstdc++.a(eh_personality.o)
 .ARM.extab.text._ZN10__cxxabiv111__terminateEPFvvE
                0x0000000008006a14       0x28 /usr/lib/gcc/arm-none-eabi/10.3.1/../../../arm-none-eabi/lib/thumb/v7e-m+dp/hard/libstdc++.a(eh_terminate.o)
 .ARM.extab.text._ZN10__cxxabiv112__unexpectedEPFvvE
                0x0000000008006a3c        0xc /usr/lib/gcc/arm-none-eabi/10.3.1/../../../arm-none-eabi/lib/thumb/v7e-m+dp/hard/libstdc++.a(eh_terminate.o)
 .ARM.extab.text._ZSt10unexpectedv
                0x0000000008006a48        0xc /usr/lib/gcc/arm-none-eabi/10.3.1/../../../arm-none-eabi/lib/thumb/v7e-m+dp/hard/libstdc++.a(eh_terminate.o)
 .ARM.extab.text.unlikely.__cxa_call_unexpected
                0x0000000008006a54       0x24 /usr/lib/gcc/arm-none-eabi/10.3.1/../../../arm-none-eabi/lib/thumb/v7e-m+dp/hard/libstdc++.a(eh_call.o)
 .ARM.extab.text.__cxa_begin_catch
                0x0000000008006a78        0xc /usr/lib/gcc/arm-none-eabi/10.3.1/../../../arm-none-eabi/lib/thumb/v7e-m+dp/hard/libstdc++.a(eh_catch.o)
 .ARM.extab     0x0000000008006a84       0x18 /usr/lib/gcc/arm-none-eabi/10.3.1/thumb/v7e-m+dp/hard/libgcc.a(pr-support.o)

.ARM            0x0000000008006a9c      0x1c0
                0x0000000008006a9c                __exidx_start = .
 *(.ARM.exidx*)
 .ARM.exidx     0x0000000008006a9c       0x80 /usr/lib/gcc/arm-none-eabi/10.3.1/thumb/v7e-m+dp/hard/libgcc.a(unwind-arm.o)
                                         0xd8 (size before relaxing)
 .ARM.exidx     0x0000000008006b1c       0x38 /usr/lib/gcc/arm-none-eabi/10.3.1/thumb/v7e-m+dp/hard/libgcc.a(pr-support.o)
 .ARM.exidx.text._ZN8STM32LED3LEDC2EP12GPIO_TypeDeft
                0x0000000008006b54        0x0 build/LED.o
                                          0x8 (size before relaxing)
 .ARM.exidx.text._ZN8STM32LED3LED6toggleEv
                0x0000000008006b54        0x8 build/LED.o
 .ARM.exidx.text._ZL12MX_GPIO_Initv
                0x0000000008006b5c        0x8 build/main.o
 .ARM.exidx.text._Z16StartDefaultTaskPv
                0x0000000008006b64        0x8 build/main.o
 .ARM.exidx.text.HAL_TIM_PeriodElapsedCallback
                0x0000000008006b6c        0x8 build/main.o
 .ARM.exidx.text.Error_Handler
                0x0000000008006b74        0x8 build/main.o
 .ARM.exidx.text._Z18SystemClock_Configv
                0x0000000008006b7c        0x8 build/main.o
 .ARM.exidx.text.main
                0x0000000008006b84       0x10 build/main.o
                                          0x8 (size before relaxing)
 .ARM.exidx.text._ZdlPvj
                0x0000000008006b94        0x0 /usr/lib/gcc/arm-none-eabi/10.3.1/../../../arm-none-eabi/lib/thumb/v7e-m+dp/hard/libstdc++.a(del_ops.o)
                                          0x8 (size before relaxing)
 .ARM.exidx.text.__cxa_type_match
                0x0000000008006b94        0x8 /usr/lib/gcc/arm-none-eabi/10.3.1/../../../arm-none-eabi/lib/thumb/v7e-m+dp/hard/libstdc++.a(eh_arm.o)
 .ARM.exidx.text.__cxa_begin_cleanup
                0x0000000008006b9c        0x8 /usr/lib/gcc/arm-none-eabi/10.3.1/../../../arm-none-eabi/lib/thumb/v7e-m+dp/hard/libstdc++.a(eh_arm.o)
 .ARM.exidx.text.__gnu_end_cleanup
                0x0000000008006ba4        0x0 /usr/lib/gcc/arm-none-eabi/10.3.1/../../../arm-none-eabi/lib/thumb/v7e-m+dp/hard/libstdc++.a(eh_arm.o)
                                          0x8 (size before relaxing)
 .ARM.exidx.text._ZNSt9exceptionD2Ev
                0x0000000008006ba4        0x0 /usr/lib/gcc/arm-none-eabi/10.3.1/../../../arm-none-eabi/lib/thumb/v7e-m+dp/hard/libstdc++.a(eh_exception.o)
                                          0x8 (size before relaxing)
 .ARM.exidx.text._ZNSt13bad_exceptionD2Ev
                0x0000000008006ba4        0x0 /usr/lib/gcc/arm-none-eabi/10.3.1/../../../arm-none-eabi/lib/thumb/v7e-m+dp/hard/libstdc++.a(eh_exception.o)
                                          0x8 (size before relaxing)
 .ARM.exidx.text._ZNKSt13bad_exception4whatEv
                0x0000000008006ba4        0x0 /usr/lib/gcc/arm-none-eabi/10.3.1/../../../arm-none-eabi/lib/thumb/v7e-m+dp/hard/libstdc++.a(eh_exception.o)
                                          0x8 (size before relaxing)
 .ARM.exidx.text._ZNSt13bad_exceptionD0Ev
                0x0000000008006ba4        0x0 /usr/lib/gcc/arm-none-eabi/10.3.1/../../../arm-none-eabi/lib/thumb/v7e-m+dp/hard/libstdc++.a(eh_exception.o)
                                          0x8 (size before relaxing)
 .ARM.exidx.text.__cxa_get_globals_fast
                0x0000000008006ba4        0x0 /usr/lib/gcc/arm-none-eabi/10.3.1/../../../arm-none-eabi/lib/thumb/v7e-m+dp/hard/libstdc++.a(eh_globals.o)
                                          0x8 (size before relaxing)
 .ARM.exidx.text.__cxa_get_globals
                0x0000000008006ba4        0x0 /usr/lib/gcc/arm-none-eabi/10.3.1/../../../arm-none-eabi/lib/thumb/v7e-m+dp/hard/libstdc++.a(eh_globals.o)
                                          0x8 (size before relaxing)
 .ARM.exidx.text._ZL28read_encoded_value_with_basehjPKhPj
                0x0000000008006ba4        0x8 /usr/lib/gcc/arm-none-eabi/10.3.1/../../../arm-none-eabi/lib/thumb/v7e-m+dp/hard/libstdc++.a(eh_personality.o)
 .ARM.exidx.text._ZL21base_of_encoded_valuehP15_Unwind_Context
                0x0000000008006bac        0x8 /usr/lib/gcc/arm-none-eabi/10.3.1/../../../arm-none-eabi/lib/thumb/v7e-m+dp/hard/libstdc++.a(eh_personality.o)
 .ARM.exidx.text._ZL17parse_lsda_headerP15_Unwind_ContextPKhP16lsda_header_info
                0x0000000008006bb4        0x8 /usr/lib/gcc/arm-none-eabi/10.3.1/../../../arm-none-eabi/lib/thumb/v7e-m+dp/hard/libstdc++.a(eh_personality.o)
 .ARM.exidx.text.__gxx_personality_v0
                0x0000000008006bbc        0x8 /usr/lib/gcc/arm-none-eabi/10.3.1/../../../arm-none-eabi/lib/thumb/v7e-m+dp/hard/libstdc++.a(eh_personality.o)
 .ARM.exidx.text._ZN10__cxxabiv111__terminateEPFvvE
                0x0000000008006bc4        0x8 /usr/lib/gcc/arm-none-eabi/10.3.1/../../../arm-none-eabi/lib/thumb/v7e-m+dp/hard/libstdc++.a(eh_terminate.o)
 .ARM.exidx.text._ZSt9terminatev
                0x0000000008006bcc        0x8 /usr/lib/gcc/arm-none-eabi/10.3.1/../../../arm-none-eabi/lib/thumb/v7e-m+dp/hard/libstdc++.a(eh_terminate.o)
 .ARM.exidx.text._ZN10__cxxabiv112__unexpectedEPFvvE
                0x0000000008006bd4        0x8 /usr/lib/gcc/arm-none-eabi/10.3.1/../../../arm-none-eabi/lib/thumb/v7e-m+dp/hard/libstdc++.a(eh_terminate.o)
 .ARM.exidx.text._ZSt10unexpectedv
                0x0000000008006bdc        0x8 /usr/lib/gcc/arm-none-eabi/10.3.1/../../../arm-none-eabi/lib/thumb/v7e-m+dp/hard/libstdc++.a(eh_terminate.o)
 .ARM.exidx.text._ZSt13get_terminatev
                0x0000000008006be4        0x8 /usr/lib/gcc/arm-none-eabi/10.3.1/../../../arm-none-eabi/lib/thumb/v7e-m+dp/hard/libstdc++.a(eh_terminate.o)
 .ARM.exidx.text._ZSt14get_unexpectedv
                0x0000000008006bec        0x0 /usr/lib/gcc/arm-none-eabi/10.3.1/../../../arm-none-eabi/lib/thumb/v7e-m+dp/hard/libstdc++.a(eh_terminate.o)
                                          0x8 (size before relaxing)
 .ARM.exidx.text._Znwj
                0x0000000008006bec        0x8 /usr/lib/gcc/arm-none-eabi/10.3.1/../../../arm-none-eabi/lib/thumb/v7e-m+dp/hard/libstdc++.a(new_op.o)
 .ARM.exidx.text._ZN10__cxxabiv120__si_class_type_infoD2Ev
                0x0000000008006bf4        0x8 /usr/lib/gcc/arm-none-eabi/10.3.1/../../../arm-none-eabi/lib/thumb/v7e-m+dp/hard/libstdc++.a(si_class_type_info.o)
 .ARM.exidx.text._ZN10__cxxabiv120__si_class_type_infoD0Ev
                0x0000000008006bfc        0x0 /usr/lib/gcc/arm-none-eabi/10.3.1/../../../arm-none-eabi/lib/thumb/v7e-m+dp/hard/libstdc++.a(si_class_type_info.o)
                                          0x8 (size before relaxing)
 .ARM.exidx.text._ZNK10__cxxabiv120__si_class_type_info20__do_find_public_srcEiPKvPKNS_17__class_type_infoES2_
                0x0000000008006bfc        0x0 /usr/lib/gcc/arm-none-eabi/10.3.1/../../../arm-none-eabi/lib/thumb/v7e-m+dp/hard/libstdc++.a(si_class_type_info.o)
                                          0x8 (size before relaxing)
 .ARM.exidx.text._ZNK10__cxxabiv120__si_class_type_info12__do_dyncastEiNS_17__class_type_info10__sub_kindEPKS1_PKvS4_S6_RNS1_16__dyncast_resultE
                0x0000000008006bfc        0x0 /usr/lib/gcc/arm-none-eabi/10.3.1/../../../arm-none-eabi/lib/thumb/v7e-m+dp/hard/libstdc++.a(si_class_type_info.o)
                                          0x8 (size before relaxing)
 .ARM.exidx.text._ZNK10__cxxabiv120__si_class_type_info11__do_upcastEPKNS_17__class_type_infoEPKvRNS1_15__upcast_resultE
                0x0000000008006bfc        0x8 /usr/lib/gcc/arm-none-eabi/10.3.1/../../../arm-none-eabi/lib/thumb/v7e-m+dp/hard/libstdc++.a(si_class_type_info.o)
 .ARM.exidx.text._ZNSt9type_infoD2Ev
                0x0000000008006c04        0x8 /usr/lib/gcc/arm-none-eabi/10.3.1/../../../arm-none-eabi/lib/thumb/v7e-m+dp/hard/libstdc++.a(tinfo.o)
 .ARM.exidx.text._ZNKSt9type_info14__is_pointer_pEv
                0x0000000008006c0c        0x0 /usr/lib/gcc/arm-none-eabi/10.3.1/../../../arm-none-eabi/lib/thumb/v7e-m+dp/hard/libstdc++.a(tinfo.o)
                                          0x8 (size before relaxing)
 .ARM.exidx.text._ZNKSt9type_infoeqERKS_
                0x0000000008006c0c        0x0 /usr/lib/gcc/arm-none-eabi/10.3.1/../../../arm-none-eabi/lib/thumb/v7e-m+dp/hard/libstdc++.a(tinfo.o)
                                          0x8 (size before relaxing)
 .ARM.exidx.text._ZNKSt9bad_alloc4whatEv
                0x0000000008006c0c        0x0 /usr/lib/gcc/arm-none-eabi/10.3.1/../../../arm-none-eabi/lib/thumb/v7e-m+dp/hard/libstdc++.a(bad_alloc.o)
                                          0x8 (size before relaxing)
 .ARM.exidx.text._ZNSt9bad_allocD2Ev
                0x0000000008006c0c        0x0 /usr/lib/gcc/arm-none-eabi/10.3.1/../../../arm-none-eabi/lib/thumb/v7e-m+dp/hard/libstdc++.a(bad_alloc.o)
                                          0x8 (size before relaxing)
 .ARM.exidx.text._ZNSt9bad_allocD0Ev
                0x0000000008006c0c        0x0 /usr/lib/gcc/arm-none-eabi/10.3.1/../../../arm-none-eabi/lib/thumb/v7e-m+dp/hard/libstdc++.a(bad_alloc.o)
                                          0x8 (size before relaxing)
 .ARM.exidx.text._ZNK10__cxxabiv117__class_type_info11__do_upcastEPKS0_PPv
                0x0000000008006c0c        0x8 /usr/lib/gcc/arm-none-eabi/10.3.1/../../../arm-none-eabi/lib/thumb/v7e-m+dp/hard/libstdc++.a(class_type_info.o)
 .ARM.exidx.text._ZNK10__cxxabiv117__class_type_info20__do_find_public_srcEiPKvPKS0_S2_
                0x0000000008006c14        0x8 /usr/lib/gcc/arm-none-eabi/10.3.1/../../../arm-none-eabi/lib/thumb/v7e-m+dp/hard/libstdc++.a(class_type_info.o)
 .ARM.exidx.text._ZN10__cxxabiv117__class_type_infoD2Ev
                0x0000000008006c1c        0x0 /usr/lib/gcc/arm-none-eabi/10.3.1/../../../arm-none-eabi/lib/thumb/v7e-m+dp/hard/libstdc++.a(class_type_info.o)
                                          0x8 (size before relaxing)
 .ARM.exidx.text._ZN10__cxxabiv117__class_type_infoD0Ev
                0x0000000008006c1c        0x0 /usr/lib/gcc/arm-none-eabi/10.3.1/../../../arm-none-eabi/lib/thumb/v7e-m+dp/hard/libstdc++.a(class_type_info.o)
                                          0x8 (size before relaxing)
 .ARM.exidx.text._ZNK10__cxxabiv117__class_type_info12__do_dyncastEiNS0_10__sub_kindEPKS0_PKvS3_S5_RNS0_16__dyncast_resultE
                0x0000000008006c1c        0x0 /usr/lib/gcc/arm-none-eabi/10.3.1/../../../arm-none-eabi/lib/thumb/v7e-m+dp/hard/libstdc++.a(class_type_info.o)
                                          0x8 (size before relaxing)
 .ARM.exidx.text._ZNK10__cxxabiv117__class_type_info11__do_upcastEPKS0_PKvRNS0_15__upcast_resultE
                0x0000000008006c1c        0x0 /usr/lib/gcc/arm-none-eabi/10.3.1/../../../arm-none-eabi/lib/thumb/v7e-m+dp/hard/libstdc++.a(class_type_info.o)
                                          0x8 (size before relaxing)
 .ARM.exidx.text._ZNK10__cxxabiv117__class_type_info10__do_catchEPKSt9type_infoPPvj
                0x0000000008006c1c        0x0 /usr/lib/gcc/arm-none-eabi/10.3.1/../../../arm-none-eabi/lib/thumb/v7e-m+dp/hard/libstdc++.a(class_type_info.o)
                                          0x8 (size before relaxing)
 .ARM.exidx.text._ZdlPv
                0x0000000008006c1c        0x0 /usr/lib/gcc/arm-none-eabi/10.3.1/../../../arm-none-eabi/lib/thumb/v7e-m+dp/hard/libstdc++.a(del_op.o)
                                          0x8 (size before relaxing)
 .ARM.exidx.text._ZN12_GLOBAL__N_14pool4freeEPv.constprop.0
                0x0000000008006c1c        0x0 /usr/lib/gcc/arm-none-eabi/10.3.1/../../../arm-none-eabi/lib/thumb/v7e-m+dp/hard/libstdc++.a(eh_alloc.o)
                                          0x8 (size before relaxing)
 .ARM.exidx.text._ZN12_GLOBAL__N_14pool8allocateEj.constprop.0
                0x0000000008006c1c        0x0 /usr/lib/gcc/arm-none-eabi/10.3.1/../../../arm-none-eabi/lib/thumb/v7e-m+dp/hard/libstdc++.a(eh_alloc.o)
                                          0x8 (size before relaxing)
 .ARM.exidx.text.__cxa_allocate_exception
                0x0000000008006c1c        0x0 /usr/lib/gcc/arm-none-eabi/10.3.1/../../../arm-none-eabi/lib/thumb/v7e-m+dp/hard/libstdc++.a(eh_alloc.o)
                                          0x8 (size before relaxing)
 .ARM.exidx.text.__cxa_free_exception
                0x0000000008006c1c        0x0 /usr/lib/gcc/arm-none-eabi/10.3.1/../../../arm-none-eabi/lib/thumb/v7e-m+dp/hard/libstdc++.a(eh_alloc.o)
                                          0x8 (size before relaxing)
 .ARM.exidx.text.startup._GLOBAL__sub_I__ZN9__gnu_cxx9__freeresEv
                0x0000000008006c1c        0x0 /usr/lib/gcc/arm-none-eabi/10.3.1/../../../arm-none-eabi/lib/thumb/v7e-m+dp/hard/libstdc++.a(eh_alloc.o)
                                          0x8 (size before relaxing)
 .ARM.exidx.text._ZN10__cxxabiv1L24__is_gxx_exception_classEPc
                0x0000000008006c1c        0x0 /usr/lib/gcc/arm-none-eabi/10.3.1/../../../arm-none-eabi/lib/thumb/v7e-m+dp/hard/libstdc++.a(eh_call.o)
                                          0x8 (size before relaxing)
 .ARM.exidx.text.__cxa_call_terminate
                0x0000000008006c1c        0x0 /usr/lib/gcc/arm-none-eabi/10.3.1/../../../arm-none-eabi/lib/thumb/v7e-m+dp/hard/libstdc++.a(eh_call.o)
                                          0x8 (size before relaxing)
 .ARM.exidx.text.unlikely.__cxa_call_unexpected
                0x0000000008006c1c        0x8 /usr/lib/gcc/arm-none-eabi/10.3.1/../../../arm-none-eabi/lib/thumb/v7e-m+dp/hard/libstdc++.a(eh_call.o)
 .ARM.exidx.text.__cxa_begin_catch
                0x0000000008006c24        0x8 /usr/lib/gcc/arm-none-eabi/10.3.1/../../../arm-none-eabi/lib/thumb/v7e-m+dp/hard/libstdc++.a(eh_catch.o)
 .ARM.exidx.text.__cxa_end_catch
                0x0000000008006c2c        0x8 /usr/lib/gcc/arm-none-eabi/10.3.1/../../../arm-none-eabi/lib/thumb/v7e-m+dp/hard/libstdc++.a(eh_catch.o)
 .ARM.exidx.text._ZL23__gxx_exception_cleanup19_Unwind_Reason_CodeP21_Unwind_Control_Block
                0x0000000008006c34        0x8 /usr/lib/gcc/arm-none-eabi/10.3.1/../../../arm-none-eabi/lib/thumb/v7e-m+dp/hard/libstdc++.a(eh_throw.o)
 .ARM.exidx.text.__cxa_init_primary_exception
                0x0000000008006c3c        0x8 /usr/lib/gcc/arm-none-eabi/10.3.1/../../../arm-none-eabi/lib/thumb/v7e-m+dp/hard/libstdc++.a(eh_throw.o)
 .ARM.exidx.text.__cxa_throw
                0x0000000008006c44        0x8 /usr/lib/gcc/arm-none-eabi/10.3.1/../../../arm-none-eabi/lib/thumb/v7e-m+dp/hard/libstdc++.a(eh_throw.o)
 .ARM.exidx.text.__cxa_rethrow
                0x0000000008006c4c        0x8 /usr/lib/gcc/arm-none-eabi/10.3.1/../../../arm-none-eabi/lib/thumb/v7e-m+dp/hard/libstdc++.a(eh_throw.o)
 .ARM.exidx.text._ZSt15get_new_handlerv
                0x0000000008006c54        0x8 /usr/lib/gcc/arm-none-eabi/10.3.1/../../../arm-none-eabi/lib/thumb/v7e-m+dp/hard/libstdc++.a(new_handler.o)
 .ARM.exidx.text.unlikely
                0x0000000008006c5c        0x0 /usr/lib/gcc/arm-none-eabi/10.3.1/thumb/v7e-m+dp/hard/libgcc.a(pr-support.o)
                                         0x10 (size before relaxing)
                0x0000000008006c5c                __exidx_end = .

.rel.dyn        0x0000000008006c5c        0x0
 .rel.iplt      0x0000000008006c5c        0x0 /usr/lib/gcc/arm-none-eabi/10.3.1/thumb/v7e-m+dp/hard/crtbegin.o

.preinit_array  0x0000000008006c5c        0x0
                0x0000000008006c5c                PROVIDE (__preinit_array_start = .)
 *(.preinit_array*)
                0x0000000008006c5c                PROVIDE (__preinit_array_end = .)

.init_array     0x0000000008006c5c        0xc
                0x0000000008006c5c                PROVIDE (__init_array_start = .)
 *(SORT_BY_NAME(.init_array.*))
 .init_array.00000
                0x0000000008006c5c        0x4 /usr/lib/gcc/arm-none-eabi/10.3.1/../../../arm-none-eabi/lib/thumb/v7e-m+dp/hard/libc.a(lib_a-__call_atexit.o)
 *(.init_array*)
 .init_array    0x0000000008006c60        0x4 /usr/lib/gcc/arm-none-eabi/10.3.1/thumb/v7e-m+dp/hard/crtbegin.o
 .init_array    0x0000000008006c64        0x4 /usr/lib/gcc/arm-none-eabi/10.3.1/../../../arm-none-eabi/lib/thumb/v7e-m+dp/hard/libstdc++.a(eh_alloc.o)
                0x0000000008006c68                PROVIDE (__init_array_end = .)

.fini_array     0x0000000008006c68        0x4
                0x0000000008006c68                PROVIDE (__fini_array_start = .)
 *(SORT_BY_NAME(.fini_array.*))
 *(.fini_array*)
 .fini_array    0x0000000008006c68        0x4 /usr/lib/gcc/arm-none-eabi/10.3.1/thumb/v7e-m+dp/hard/crtbegin.o
                0x0000000008006c6c                PROVIDE (__fini_array_end = .)
                0x0000000008006c6c                _sidata = LOADADDR (.data)

.data           0x0000000020000000      0x85c load address 0x0000000008006c6c
                0x0000000020000000                . = ALIGN (0x4)
                0x0000000020000000                _sdata = .
 *(.data)
 .data          0x0000000020000000      0x430 /usr/lib/gcc/arm-none-eabi/10.3.1/../../../arm-none-eabi/lib/thumb/v7e-m+dp/hard/libc.a(lib_a-impure.o)
                0x0000000020000000                _impure_ptr
 .data          0x0000000020000430      0x410 /usr/lib/gcc/arm-none-eabi/10.3.1/../../../arm-none-eabi/lib/thumb/v7e-m+dp/hard/libc.a(lib_a-mallocr.o)
                0x0000000020000430                __malloc_av_
                0x0000000020000838                __malloc_sbrk_base
                0x000000002000083c                __malloc_trim_threshold
 *(.data*)
 .data.uwTickFreq
                0x0000000020000840        0x1 build/stm32h7xx_hal.o
                0x0000000020000840                uwTickFreq
 *fill*         0x0000000020000841        0x3 
 .data.uwTickPrio
                0x0000000020000844        0x4 build/stm32h7xx_hal.o
                0x0000000020000844                uwTickPrio
 .data.SystemCoreClock
                0x0000000020000848        0x4 build/system_stm32h7xx.o
                0x0000000020000848                SystemCoreClock
 .data.SystemD2Clock
                0x000000002000084c        0x4 build/system_stm32h7xx.o
                0x000000002000084c                SystemD2Clock
 .data.uxCriticalNesting
                0x0000000020000850        0x4 build/port.o
 .data._ZN10__cxxabiv120__unexpected_handlerE
                0x0000000020000854        0x4 /usr/lib/gcc/arm-none-eabi/10.3.1/../../../arm-none-eabi/lib/thumb/v7e-m+dp/hard/libstdc++.a(eh_unex_handler.o)
                0x0000000020000854                __cxxabiv1::__unexpected_handler
 .data._ZN10__cxxabiv119__terminate_handlerE
                0x0000000020000858        0x4 /usr/lib/gcc/arm-none-eabi/10.3.1/../../../arm-none-eabi/lib/thumb/v7e-m+dp/hard/libstdc++.a(eh_term_handler.o)
                0x0000000020000858                __cxxabiv1::__terminate_handler
                0x000000002000085c                . = ALIGN (0x4)
                0x000000002000085c                _edata = .

.tm_clone_table
                0x000000002000085c        0x0 load address 0x00000000080074c8
 .tm_clone_table
                0x000000002000085c        0x0 /usr/lib/gcc/arm-none-eabi/10.3.1/thumb/v7e-m+dp/hard/crtbegin.o
 .tm_clone_table
                0x000000002000085c        0x0 /usr/lib/gcc/arm-none-eabi/10.3.1/thumb/v7e-m+dp/hard/crtend.o

.igot.plt       0x000000002000085c        0x0 load address 0x00000000080074c8
 .igot.plt      0x000000002000085c        0x0 /usr/lib/gcc/arm-none-eabi/10.3.1/thumb/v7e-m+dp/hard/crtbegin.o
                0x000000002000085c                . = ALIGN (0x4)

.bss            0x000000002000085c     0x4ca4 load address 0x00000000080074c8
                0x000000002000085c                _sbss = .
                0x000000002000085c                __bss_start__ = _sbss
 *(.bss)
 .bss           0x000000002000085c       0x1c /usr/lib/gcc/arm-none-eabi/10.3.1/thumb/v7e-m+dp/hard/crtbegin.o
 .bss           0x0000000020000878       0x34 /usr/lib/gcc/arm-none-eabi/10.3.1/../../../arm-none-eabi/lib/thumb/v7e-m+dp/hard/libc.a(lib_a-mallocr.o)
                0x0000000020000878                __malloc_top_pad
                0x000000002000087c                __malloc_current_mallinfo
                0x00000000200008a4                __malloc_max_sbrked_mem
                0x00000000200008a8                __malloc_max_total_mem
 .bss           0x00000000200008ac        0x4 /usr/lib/gcc/arm-none-eabi/10.3.1/../../../arm-none-eabi/lib/thumb/v7e-m+dp/hard/libc.a(lib_a-reent.o)
                0x00000000200008ac                errno
 .bss           0x00000000200008b0        0x4 /usr/lib/gcc/arm-none-eabi/10.3.1/../../../arm-none-eabi/lib/thumb/v7e-m+dp/hard/libnosys.a(sbrk.o)
 *(.bss*)
 .bss.htim1     0x00000000200008b4       0x4c build/stm32h7xx_hal_timebase_tim.o
                0x00000000200008b4                htim1
 .bss.uwTick    0x0000000020000900        0x4 build/stm32h7xx_hal.o
                0x0000000020000900                uwTick
 .bss.xQueueRegistry
                0x0000000020000904       0x40 build/queue.o
                0x0000000020000904                xQueueRegistry
 .bss.pxCurrentTCB
                0x0000000020000944        0x4 build/tasks.o
                0x0000000020000944                pxCurrentTCB
 .bss.pxDelayedTaskList
                0x0000000020000948        0x4 build/tasks.o
 .bss.pxOverflowDelayedTaskList
                0x000000002000094c        0x4 build/tasks.o
 .bss.pxReadyTasksLists
                0x0000000020000950      0x460 build/tasks.o
 .bss.uxCurrentNumberOfTasks
                0x0000000020000db0        0x4 build/tasks.o
 .bss.uxDeletedTasksWaitingCleanUp
                0x0000000020000db4        0x4 build/tasks.o
 .bss.uxSchedulerSuspended
                0x0000000020000db8        0x4 build/tasks.o
 .bss.uxTaskNumber
                0x0000000020000dbc        0x4 build/tasks.o
 .bss.uxTopReadyPriority
                0x0000000020000dc0        0x4 build/tasks.o
 .bss.xDelayedTaskList1
                0x0000000020000dc4       0x14 build/tasks.o
 .bss.xDelayedTaskList2
                0x0000000020000dd8       0x14 build/tasks.o
 .bss.xIdleTaskHandle
                0x0000000020000dec        0x4 build/tasks.o
 .bss.xNextTaskUnblockTime
                0x0000000020000df0        0x4 build/tasks.o
 .bss.xNumOfOverflows
                0x0000000020000df4        0x4 build/tasks.o
 .bss.xPendedTicks
                0x0000000020000df8        0x4 build/tasks.o
 .bss.xPendingReadyList
                0x0000000020000dfc       0x14 build/tasks.o
 .bss.xSchedulerRunning
                0x0000000020000e10        0x4 build/tasks.o
 .bss.xSuspendedTaskList
                0x0000000020000e14       0x14 build/tasks.o
 .bss.xTasksWaitingTermination
                0x0000000020000e28       0x14 build/tasks.o
 .bss.xTickCount
                0x0000000020000e3c        0x4 build/tasks.o
 .bss.xYieldPending
                0x0000000020000e40        0x4 build/tasks.o
 .bss.pxCurrentTimerList
                0x0000000020000e44        0x4 build/timers.o
 .bss.pxOverflowTimerList
                0x0000000020000e48        0x4 build/timers.o
 .bss.ucStaticTimerQueueStorage.1
                0x0000000020000e4c       0xa0 build/timers.o
 .bss.xActiveTimerList1
                0x0000000020000eec       0x14 build/timers.o
 .bss.xActiveTimerList2
                0x0000000020000f00       0x14 build/timers.o
 .bss.xLastTime.2
                0x0000000020000f14        0x4 build/timers.o
 .bss.xStaticTimerQueue.0
                0x0000000020000f18       0x50 build/timers.o
 .bss.xTimerQueue
                0x0000000020000f68        0x4 build/timers.o
 .bss.xTimerTaskHandle
                0x0000000020000f6c        0x4 build/timers.o
 .bss.Idle_Stack.2
                0x0000000020000f70      0x200 build/cmsis_os2.o
 .bss.Idle_TCB.3
                0x0000000020001170       0x5c build/cmsis_os2.o
 .bss.KernelState
                0x00000000200011cc        0x4 build/cmsis_os2.o
 .bss.Timer_Stack.0
                0x00000000200011d0      0x400 build/cmsis_os2.o
 .bss.Timer_TCB.1
                0x00000000200015d0       0x5c build/cmsis_os2.o
 .bss.pxEnd     0x000000002000162c        0x4 build/heap_4.o
 .bss.ucHeap    0x0000000020001630     0x3e80 build/heap_4.o
 .bss.xBlockAllocatedBit
                0x00000000200054b0        0x4 build/heap_4.o
 .bss.xFreeBytesRemaining
                0x00000000200054b4        0x4 build/heap_4.o
 .bss.xMinimumEverFreeBytesRemaining
                0x00000000200054b8        0x4 build/heap_4.o
 .bss.xNumberOfSuccessfulAllocations
                0x00000000200054bc        0x4 build/heap_4.o
 .bss.xNumberOfSuccessfulFrees
                0x00000000200054c0        0x4 build/heap_4.o
 .bss.xStart    0x00000000200054c4        0x8 build/heap_4.o
 .bss.ucMaxSysCallPriority
                0x00000000200054cc        0x1 build/port.o
 *fill*         0x00000000200054cd        0x3 
 .bss.ulMaxPRIGROUPValue
                0x00000000200054d0        0x4 build/port.o
 .bss._ZN8STM32LED4LED2E
                0x00000000200054d4        0x4 build/LED.o
                0x00000000200054d4                STM32LED::LED2
 .bss._ZN8STM32LED4LED3E
                0x00000000200054d8        0x4 build/LED.o
                0x00000000200054d8                STM32LED::LED3
 .bss.defaultTaskHandle
                0x00000000200054dc        0x4 build/main.o
                0x00000000200054dc                defaultTaskHandle
 .bss._ZL10eh_globals
                0x00000000200054e0        0xc /usr/lib/gcc/arm-none-eabi/10.3.1/../../../arm-none-eabi/lib/thumb/v7e-m+dp/hard/libstdc++.a(eh_globals.o)
 .bss._ZN12_GLOBAL__N_114emergency_poolE
                0x00000000200054ec       0x10 /usr/lib/gcc/arm-none-eabi/10.3.1/../../../arm-none-eabi/lib/thumb/v7e-m+dp/hard/libstdc++.a(eh_alloc.o)
 .bss._ZN12_GLOBAL__N_113__new_handlerE
                0x00000000200054fc        0x4 /usr/lib/gcc/arm-none-eabi/10.3.1/../../../arm-none-eabi/lib/thumb/v7e-m+dp/hard/libstdc++.a(new_handler.o)
 *(COMMON)
                0x0000000020005500                . = ALIGN (0x4)
                0x0000000020005500                _ebss = .
                0x0000000020005500                __bss_end__ = _ebss

._user_heap_stack
                0x0000000020005500      0x600 load address 0x00000000080074c8
                0x0000000020005500                . = ALIGN (0x8)
                0x0000000020005500                PROVIDE (end = .)
                [!provide]                        PROVIDE (_end = .)
                0x0000000020005700                . = (. + _Min_Heap_Size)
 *fill*         0x0000000020005500      0x200 
                0x0000000020005b00                . = (. + _Min_Stack_Size)
 *fill*         0x0000000020005700      0x400 
                0x0000000020005b00                . = ALIGN (0x8)

/DISCARD/
 libc.a(*)
 libm.a(*)
 libgcc.a(*)

.ARM.attributes
                0x0000000000000000       0x2e
 *(.ARM.attributes)
 .ARM.attributes
                0x0000000000000000       0x1e /usr/lib/gcc/arm-none-eabi/10.3.1/thumb/v7e-m+dp/hard/crti.o
 .ARM.attributes
                0x000000000000001e       0x32 /usr/lib/gcc/arm-none-eabi/10.3.1/thumb/v7e-m+dp/hard/crtbegin.o
 .ARM.attributes
                0x0000000000000050       0x32 build/stm32h7xx_it.o
 .ARM.attributes
                0x0000000000000082       0x32 build/stm32h7xx_hal_msp.o
 .ARM.attributes
                0x00000000000000b4       0x32 build/stm32h7xx_hal_timebase_tim.o
 .ARM.attributes
                0x00000000000000e6       0x32 build/stm32h7xx_hal_cortex.o
 .ARM.attributes
                0x0000000000000118       0x32 build/stm32h7xx_hal_rcc.o
 .ARM.attributes
                0x000000000000014a       0x32 build/stm32h7xx_hal_gpio.o
 .ARM.attributes
                0x000000000000017c       0x32 build/stm32h7xx_hal_pwr_ex.o
 .ARM.attributes
                0x00000000000001ae       0x32 build/stm32h7xx_hal.o
 .ARM.attributes
                0x00000000000001e0       0x32 build/stm32h7xx_hal_tim.o
 .ARM.attributes
                0x0000000000000212       0x32 build/stm32h7xx_hal_tim_ex.o
 .ARM.attributes
                0x0000000000000244       0x32 build/system_stm32h7xx.o
 .ARM.attributes
                0x0000000000000276       0x32 build/list.o
 .ARM.attributes
                0x00000000000002a8       0x32 build/queue.o
 .ARM.attributes
                0x00000000000002da       0x32 build/tasks.o
 .ARM.attributes
                0x000000000000030c       0x32 build/timers.o
 .ARM.attributes
                0x000000000000033e       0x32 build/cmsis_os2.o
 .ARM.attributes
                0x0000000000000370       0x32 build/heap_4.o
 .ARM.attributes
                0x00000000000003a2       0x32 build/port.o
 .ARM.attributes
                0x00000000000003d4       0x32 build/LED.o
 .ARM.attributes
                0x0000000000000406       0x32 build/main.o
 .ARM.attributes
                0x0000000000000438       0x21 build/startup_stm32h733xx.o
 .ARM.attributes
                0x0000000000000459       0x32 /usr/lib/gcc/arm-none-eabi/10.3.1/../../../arm-none-eabi/lib/thumb/v7e-m+dp/hard/libstdc++.a(del_ops.o)
 .ARM.attributes
                0x000000000000048b       0x32 /usr/lib/gcc/arm-none-eabi/10.3.1/../../../arm-none-eabi/lib/thumb/v7e-m+dp/hard/libstdc++.a(eh_arm.o)
 .ARM.attributes
                0x00000000000004bd       0x32 /usr/lib/gcc/arm-none-eabi/10.3.1/../../../arm-none-eabi/lib/thumb/v7e-m+dp/hard/libstdc++.a(eh_exception.o)
 .ARM.attributes
                0x00000000000004ef       0x32 /usr/lib/gcc/arm-none-eabi/10.3.1/../../../arm-none-eabi/lib/thumb/v7e-m+dp/hard/libstdc++.a(eh_globals.o)
 .ARM.attributes
                0x0000000000000521       0x32 /usr/lib/gcc/arm-none-eabi/10.3.1/../../../arm-none-eabi/lib/thumb/v7e-m+dp/hard/libstdc++.a(eh_personality.o)
 .ARM.attributes
                0x0000000000000553       0x32 /usr/lib/gcc/arm-none-eabi/10.3.1/../../../arm-none-eabi/lib/thumb/v7e-m+dp/hard/libstdc++.a(eh_terminate.o)
 .ARM.attributes
                0x0000000000000585       0x30 /usr/lib/gcc/arm-none-eabi/10.3.1/../../../arm-none-eabi/lib/thumb/v7e-m+dp/hard/libstdc++.a(eh_unex_handler.o)
 .ARM.attributes
                0x00000000000005b5       0x32 /usr/lib/gcc/arm-none-eabi/10.3.1/../../../arm-none-eabi/lib/thumb/v7e-m+dp/hard/libstdc++.a(new_op.o)
 .ARM.attributes
                0x00000000000005e7       0x32 /usr/lib/gcc/arm-none-eabi/10.3.1/../../../arm-none-eabi/lib/thumb/v7e-m+dp/hard/libstdc++.a(si_class_type_info.o)
 .ARM.attributes
                0x0000000000000619       0x32 /usr/lib/gcc/arm-none-eabi/10.3.1/../../../arm-none-eabi/lib/thumb/v7e-m+dp/hard/libstdc++.a(tinfo.o)
 .ARM.attributes
                0x000000000000064b       0x32 /usr/lib/gcc/arm-none-eabi/10.3.1/../../../arm-none-eabi/lib/thumb/v7e-m+dp/hard/libstdc++.a(bad_alloc.o)
 .ARM.attributes
                0x000000000000067d       0x32 /usr/lib/gcc/arm-none-eabi/10.3.1/../../../arm-none-eabi/lib/thumb/v7e-m+dp/hard/libstdc++.a(class_type_info.o)
 .ARM.attributes
                0x00000000000006af       0x32 /usr/lib/gcc/arm-none-eabi/10.3.1/../../../arm-none-eabi/lib/thumb/v7e-m+dp/hard/libstdc++.a(del_op.o)
 .ARM.attributes
                0x00000000000006e1       0x32 /usr/lib/gcc/arm-none-eabi/10.3.1/../../../arm-none-eabi/lib/thumb/v7e-m+dp/hard/libstdc++.a(eh_alloc.o)
 .ARM.attributes
                0x0000000000000713       0x32 /usr/lib/gcc/arm-none-eabi/10.3.1/../../../arm-none-eabi/lib/thumb/v7e-m+dp/hard/libstdc++.a(eh_call.o)
 .ARM.attributes
                0x0000000000000745       0x32 /usr/lib/gcc/arm-none-eabi/10.3.1/../../../arm-none-eabi/lib/thumb/v7e-m+dp/hard/libstdc++.a(eh_catch.o)
 .ARM.attributes
                0x0000000000000777       0x30 /usr/lib/gcc/arm-none-eabi/10.3.1/../../../arm-none-eabi/lib/thumb/v7e-m+dp/hard/libstdc++.a(eh_term_handler.o)
 .ARM.attributes
                0x00000000000007a7       0x32 /usr/lib/gcc/arm-none-eabi/10.3.1/../../../arm-none-eabi/lib/thumb/v7e-m+dp/hard/libstdc++.a(eh_throw.o)
 .ARM.attributes
                0x00000000000007d9       0x32 /usr/lib/gcc/arm-none-eabi/10.3.1/../../../arm-none-eabi/lib/thumb/v7e-m+dp/hard/libstdc++.a(new_handler.o)
 .ARM.attributes
                0x000000000000080b       0x32 /usr/lib/gcc/arm-none-eabi/10.3.1/../../../arm-none-eabi/lib/thumb/v7e-m+dp/hard/libc.a(lib_a-abort.o)
 .ARM.attributes
                0x000000000000083d       0x32 /usr/lib/gcc/arm-none-eabi/10.3.1/../../../arm-none-eabi/lib/thumb/v7e-m+dp/hard/libc.a(lib_a-atexit.o)
 .ARM.attributes
                0x000000000000086f       0x32 /usr/lib/gcc/arm-none-eabi/10.3.1/../../../arm-none-eabi/lib/thumb/v7e-m+dp/hard/libc.a(lib_a-fini.o)
 .ARM.attributes
                0x00000000000008a1       0x30 /usr/lib/gcc/arm-none-eabi/10.3.1/../../../arm-none-eabi/lib/thumb/v7e-m+dp/hard/libc.a(lib_a-impure.o)
 .ARM.attributes
                0x00000000000008d1       0x32 /usr/lib/gcc/arm-none-eabi/10.3.1/../../../arm-none-eabi/lib/thumb/v7e-m+dp/hard/libc.a(lib_a-init.o)
 .ARM.attributes
                0x0000000000000903       0x32 /usr/lib/gcc/arm-none-eabi/10.3.1/../../../arm-none-eabi/lib/thumb/v7e-m+dp/hard/libc.a(lib_a-malloc.o)
 .ARM.attributes
                0x0000000000000935       0x32 /usr/lib/gcc/arm-none-eabi/10.3.1/../../../arm-none-eabi/lib/thumb/v7e-m+dp/hard/libc.a(lib_a-mallocr.o)
 .ARM.attributes
                0x0000000000000967       0x1c /usr/lib/gcc/arm-none-eabi/10.3.1/../../../arm-none-eabi/lib/thumb/v7e-m+dp/hard/libc.a(lib_a-memcpy.o)
 .ARM.attributes
                0x0000000000000983       0x32 /usr/lib/gcc/arm-none-eabi/10.3.1/../../../arm-none-eabi/lib/thumb/v7e-m+dp/hard/libc.a(lib_a-memset.o)
 .ARM.attributes
                0x00000000000009b5       0x32 /usr/lib/gcc/arm-none-eabi/10.3.1/../../../arm-none-eabi/lib/thumb/v7e-m+dp/hard/libc.a(lib_a-mlock.o)
 .ARM.attributes
                0x00000000000009e7       0x32 /usr/lib/gcc/arm-none-eabi/10.3.1/../../../arm-none-eabi/lib/thumb/v7e-m+dp/hard/libc.a(lib_a-sbrkr.o)
 .ARM.attributes
                0x0000000000000a19       0x32 /usr/lib/gcc/arm-none-eabi/10.3.1/../../../arm-none-eabi/lib/thumb/v7e-m+dp/hard/libc.a(lib_a-signal.o)
 .ARM.attributes
                0x0000000000000a4b       0x32 /usr/lib/gcc/arm-none-eabi/10.3.1/../../../arm-none-eabi/lib/thumb/v7e-m+dp/hard/libc.a(lib_a-signalr.o)
 .ARM.attributes
                0x0000000000000a7d       0x1c /usr/lib/gcc/arm-none-eabi/10.3.1/../../../arm-none-eabi/lib/thumb/v7e-m+dp/hard/libc.a(lib_a-strcmp.o)
 .ARM.attributes
                0x0000000000000a99       0x32 /usr/lib/gcc/arm-none-eabi/10.3.1/../../../arm-none-eabi/lib/thumb/v7e-m+dp/hard/libc.a(lib_a-__atexit.o)
 .ARM.attributes
                0x0000000000000acb       0x32 /usr/lib/gcc/arm-none-eabi/10.3.1/../../../arm-none-eabi/lib/thumb/v7e-m+dp/hard/libc.a(lib_a-__call_atexit.o)
 .ARM.attributes
                0x0000000000000afd       0x32 /usr/lib/gcc/arm-none-eabi/10.3.1/../../../arm-none-eabi/lib/thumb/v7e-m+dp/hard/libc.a(lib_a-freer.o)
 .ARM.attributes
                0x0000000000000b2f       0x32 /usr/lib/gcc/arm-none-eabi/10.3.1/../../../arm-none-eabi/lib/thumb/v7e-m+dp/hard/libc.a(lib_a-reent.o)
 .ARM.attributes
                0x0000000000000b61       0x32 /usr/lib/gcc/arm-none-eabi/10.3.1/thumb/v7e-m+dp/hard/libgcc.a(unwind-arm.o)
 .ARM.attributes
                0x0000000000000b93       0x1e /usr/lib/gcc/arm-none-eabi/10.3.1/thumb/v7e-m+dp/hard/libgcc.a(libunwind.o)
 .ARM.attributes
                0x0000000000000bb1       0x32 /usr/lib/gcc/arm-none-eabi/10.3.1/thumb/v7e-m+dp/hard/libgcc.a(pr-support.o)
 .ARM.attributes
                0x0000000000000be3       0x32 /usr/lib/gcc/arm-none-eabi/10.3.1/../../../arm-none-eabi/lib/thumb/v7e-m+dp/hard/libnosys.a(getpid.o)
 .ARM.attributes
                0x0000000000000c15       0x32 /usr/lib/gcc/arm-none-eabi/10.3.1/../../../arm-none-eabi/lib/thumb/v7e-m+dp/hard/libnosys.a(kill.o)
 .ARM.attributes
                0x0000000000000c47       0x32 /usr/lib/gcc/arm-none-eabi/10.3.1/../../../arm-none-eabi/lib/thumb/v7e-m+dp/hard/libnosys.a(sbrk.o)
 .ARM.attributes
                0x0000000000000c79       0x32 /usr/lib/gcc/arm-none-eabi/10.3.1/../../../arm-none-eabi/lib/thumb/v7e-m+dp/hard/libnosys.a(_exit.o)
 .ARM.attributes
                0x0000000000000cab       0x30 /usr/lib/gcc/arm-none-eabi/10.3.1/thumb/v7e-m+dp/hard/crtend.o
 .ARM.attributes
                0x0000000000000cdb       0x1e /usr/lib/gcc/arm-none-eabi/10.3.1/thumb/v7e-m+dp/hard/crtn.o
OUTPUT(build/Firmware.elf elf32-littlearm)
LOAD linker stubs
LOAD /usr/lib/gcc/arm-none-eabi/10.3.1/../../../arm-none-eabi/lib/thumb/v7e-m+dp/hard/libc.a
LOAD /usr/lib/gcc/arm-none-eabi/10.3.1/../../../arm-none-eabi/lib/thumb/v7e-m+dp/hard/libm.a
LOAD /usr/lib/gcc/arm-none-eabi/10.3.1/thumb/v7e-m+dp/hard/libgcc.a

.comment        0x0000000000000000       0x33
 .comment       0x0000000000000000       0x33 /usr/lib/gcc/arm-none-eabi/10.3.1/thumb/v7e-m+dp/hard/crtbegin.o
                                         0x34 (size before relaxing)
 .comment       0x0000000000000033       0x34 build/stm32h7xx_it.o
 .comment       0x0000000000000033       0x34 build/stm32h7xx_hal_msp.o
 .comment       0x0000000000000033       0x34 build/stm32h7xx_hal_timebase_tim.o
 .comment       0x0000000000000033       0x34 build/stm32h7xx_hal_cortex.o
 .comment       0x0000000000000033       0x34 build/stm32h7xx_hal_rcc.o
 .comment       0x0000000000000033       0x34 build/stm32h7xx_hal_gpio.o
 .comment       0x0000000000000033       0x34 build/stm32h7xx_hal_pwr_ex.o
 .comment       0x0000000000000033       0x34 build/stm32h7xx_hal.o
 .comment       0x0000000000000033       0x34 build/stm32h7xx_hal_tim.o
 .comment       0x0000000000000033       0x34 build/stm32h7xx_hal_tim_ex.o
 .comment       0x0000000000000033       0x34 build/system_stm32h7xx.o
 .comment       0x0000000000000033       0x34 build/list.o
 .comment       0x0000000000000033       0x34 build/queue.o
 .comment       0x0000000000000033       0x34 build/tasks.o
 .comment       0x0000000000000033       0x34 build/timers.o
 .comment       0x0000000000000033       0x34 build/cmsis_os2.o
 .comment       0x0000000000000033       0x34 build/heap_4.o
 .comment       0x0000000000000033       0x34 build/port.o
 .comment       0x0000000000000033       0x34 build/LED.o
 .comment       0x0000000000000033       0x34 build/main.o
 .comment       0x0000000000000033       0x34 /usr/lib/gcc/arm-none-eabi/10.3.1/../../../arm-none-eabi/lib/thumb/v7e-m+dp/hard/libstdc++.a(del_ops.o)
 .comment       0x0000000000000033       0x34 /usr/lib/gcc/arm-none-eabi/10.3.1/../../../arm-none-eabi/lib/thumb/v7e-m+dp/hard/libstdc++.a(eh_arm.o)
 .comment       0x0000000000000033       0x34 /usr/lib/gcc/arm-none-eabi/10.3.1/../../../arm-none-eabi/lib/thumb/v7e-m+dp/hard/libstdc++.a(eh_exception.o)
 .comment       0x0000000000000033       0x34 /usr/lib/gcc/arm-none-eabi/10.3.1/../../../arm-none-eabi/lib/thumb/v7e-m+dp/hard/libstdc++.a(eh_globals.o)
 .comment       0x0000000000000033       0x34 /usr/lib/gcc/arm-none-eabi/10.3.1/../../../arm-none-eabi/lib/thumb/v7e-m+dp/hard/libstdc++.a(eh_personality.o)
 .comment       0x0000000000000033       0x34 /usr/lib/gcc/arm-none-eabi/10.3.1/../../../arm-none-eabi/lib/thumb/v7e-m+dp/hard/libstdc++.a(eh_terminate.o)
 .comment       0x0000000000000033       0x34 /usr/lib/gcc/arm-none-eabi/10.3.1/../../../arm-none-eabi/lib/thumb/v7e-m+dp/hard/libstdc++.a(eh_unex_handler.o)
 .comment       0x0000000000000033       0x34 /usr/lib/gcc/arm-none-eabi/10.3.1/../../../arm-none-eabi/lib/thumb/v7e-m+dp/hard/libstdc++.a(new_op.o)
 .comment       0x0000000000000033       0x34 /usr/lib/gcc/arm-none-eabi/10.3.1/../../../arm-none-eabi/lib/thumb/v7e-m+dp/hard/libstdc++.a(si_class_type_info.o)
 .comment       0x0000000000000033       0x34 /usr/lib/gcc/arm-none-eabi/10.3.1/../../../arm-none-eabi/lib/thumb/v7e-m+dp/hard/libstdc++.a(tinfo.o)
 .comment       0x0000000000000033       0x34 /usr/lib/gcc/arm-none-eabi/10.3.1/../../../arm-none-eabi/lib/thumb/v7e-m+dp/hard/libstdc++.a(bad_alloc.o)
 .comment       0x0000000000000033       0x34 /usr/lib/gcc/arm-none-eabi/10.3.1/../../../arm-none-eabi/lib/thumb/v7e-m+dp/hard/libstdc++.a(class_type_info.o)
 .comment       0x0000000000000033       0x34 /usr/lib/gcc/arm-none-eabi/10.3.1/../../../arm-none-eabi/lib/thumb/v7e-m+dp/hard/libstdc++.a(del_op.o)
 .comment       0x0000000000000033       0x34 /usr/lib/gcc/arm-none-eabi/10.3.1/../../../arm-none-eabi/lib/thumb/v7e-m+dp/hard/libstdc++.a(eh_alloc.o)
 .comment       0x0000000000000033       0x34 /usr/lib/gcc/arm-none-eabi/10.3.1/../../../arm-none-eabi/lib/thumb/v7e-m+dp/hard/libstdc++.a(eh_call.o)
 .comment       0x0000000000000033       0x34 /usr/lib/gcc/arm-none-eabi/10.3.1/../../../arm-none-eabi/lib/thumb/v7e-m+dp/hard/libstdc++.a(eh_catch.o)
 .comment       0x0000000000000033       0x34 /usr/lib/gcc/arm-none-eabi/10.3.1/../../../arm-none-eabi/lib/thumb/v7e-m+dp/hard/libstdc++.a(eh_term_handler.o)
 .comment       0x0000000000000033       0x34 /usr/lib/gcc/arm-none-eabi/10.3.1/../../../arm-none-eabi/lib/thumb/v7e-m+dp/hard/libstdc++.a(eh_throw.o)
 .comment       0x0000000000000033       0x34 /usr/lib/gcc/arm-none-eabi/10.3.1/../../../arm-none-eabi/lib/thumb/v7e-m+dp/hard/libstdc++.a(new_handler.o)
 .comment       0x0000000000000033       0x34 /usr/lib/gcc/arm-none-eabi/10.3.1/../../../arm-none-eabi/lib/thumb/v7e-m+dp/hard/libc.a(lib_a-abort.o)
 .comment       0x0000000000000033       0x34 /usr/lib/gcc/arm-none-eabi/10.3.1/../../../arm-none-eabi/lib/thumb/v7e-m+dp/hard/libc.a(lib_a-atexit.o)
 .comment       0x0000000000000033       0x34 /usr/lib/gcc/arm-none-eabi/10.3.1/../../../arm-none-eabi/lib/thumb/v7e-m+dp/hard/libc.a(lib_a-fini.o)
 .comment       0x0000000000000033       0x34 /usr/lib/gcc/arm-none-eabi/10.3.1/../../../arm-none-eabi/lib/thumb/v7e-m+dp/hard/libc.a(lib_a-impure.o)
 .comment       0x0000000000000033       0x34 /usr/lib/gcc/arm-none-eabi/10.3.1/../../../arm-none-eabi/lib/thumb/v7e-m+dp/hard/libc.a(lib_a-init.o)
 .comment       0x0000000000000033       0x34 /usr/lib/gcc/arm-none-eabi/10.3.1/../../../arm-none-eabi/lib/thumb/v7e-m+dp/hard/libc.a(lib_a-malloc.o)
 .comment       0x0000000000000033       0x34 /usr/lib/gcc/arm-none-eabi/10.3.1/../../../arm-none-eabi/lib/thumb/v7e-m+dp/hard/libc.a(lib_a-mallocr.o)
 .comment       0x0000000000000033       0x34 /usr/lib/gcc/arm-none-eabi/10.3.1/../../../arm-none-eabi/lib/thumb/v7e-m+dp/hard/libc.a(lib_a-memset.o)
 .comment       0x0000000000000033       0x34 /usr/lib/gcc/arm-none-eabi/10.3.1/../../../arm-none-eabi/lib/thumb/v7e-m+dp/hard/libc.a(lib_a-mlock.o)
 .comment       0x0000000000000033       0x34 /usr/lib/gcc/arm-none-eabi/10.3.1/../../../arm-none-eabi/lib/thumb/v7e-m+dp/hard/libc.a(lib_a-sbrkr.o)
 .comment       0x0000000000000033       0x34 /usr/lib/gcc/arm-none-eabi/10.3.1/../../../arm-none-eabi/lib/thumb/v7e-m+dp/hard/libc.a(lib_a-signal.o)
 .comment       0x0000000000000033       0x34 /usr/lib/gcc/arm-none-eabi/10.3.1/../../../arm-none-eabi/lib/thumb/v7e-m+dp/hard/libc.a(lib_a-signalr.o)
 .comment       0x0000000000000033       0x34 /usr/lib/gcc/arm-none-eabi/10.3.1/../../../arm-none-eabi/lib/thumb/v7e-m+dp/hard/libc.a(lib_a-__atexit.o)
 .comment       0x0000000000000033       0x34 /usr/lib/gcc/arm-none-eabi/10.3.1/../../../arm-none-eabi/lib/thumb/v7e-m+dp/hard/libc.a(lib_a-__call_atexit.o)
 .comment       0x0000000000000033       0x34 /usr/lib/gcc/arm-none-eabi/10.3.1/../../../arm-none-eabi/lib/thumb/v7e-m+dp/hard/libc.a(lib_a-freer.o)
 .comment       0x0000000000000033       0x34 /usr/lib/gcc/arm-none-eabi/10.3.1/../../../arm-none-eabi/lib/thumb/v7e-m+dp/hard/libc.a(lib_a-reent.o)
 .comment       0x0000000000000033       0x34 /usr/lib/gcc/arm-none-eabi/10.3.1/thumb/v7e-m+dp/hard/libgcc.a(unwind-arm.o)
 .comment       0x0000000000000033       0x34 /usr/lib/gcc/arm-none-eabi/10.3.1/thumb/v7e-m+dp/hard/libgcc.a(pr-support.o)
 .comment       0x0000000000000033       0x34 /usr/lib/gcc/arm-none-eabi/10.3.1/../../../arm-none-eabi/lib/thumb/v7e-m+dp/hard/libnosys.a(getpid.o)
 .comment       0x0000000000000033       0x34 /usr/lib/gcc/arm-none-eabi/10.3.1/../../../arm-none-eabi/lib/thumb/v7e-m+dp/hard/libnosys.a(kill.o)
 .comment       0x0000000000000033       0x34 /usr/lib/gcc/arm-none-eabi/10.3.1/../../../arm-none-eabi/lib/thumb/v7e-m+dp/hard/libnosys.a(sbrk.o)
 .comment       0x0000000000000033       0x34 /usr/lib/gcc/arm-none-eabi/10.3.1/../../../arm-none-eabi/lib/thumb/v7e-m+dp/hard/libnosys.a(_exit.o)
 .comment       0x0000000000000033       0x34 /usr/lib/gcc/arm-none-eabi/10.3.1/thumb/v7e-m+dp/hard/crtend.o

.debug_info     0x0000000000000000    0x3addd
 .debug_info    0x0000000000000000      0x8de build/stm32h7xx_it.o
 .debug_info    0x00000000000008de      0x8f5 build/stm32h7xx_hal_msp.o
 .debug_info    0x00000000000011d3     0x128c build/stm32h7xx_hal_timebase_tim.o
 .debug_info    0x000000000000245f     0x14e9 build/stm32h7xx_hal_cortex.o
 .debug_info    0x0000000000003948     0x125d build/stm32h7xx_hal_rcc.o
 .debug_info    0x0000000000004ba5      0xed8 build/stm32h7xx_hal_gpio.o
 .debug_info    0x0000000000005a7d     0x1135 build/stm32h7xx_hal_pwr_ex.o
 .debug_info    0x0000000000006bb2     0x1a73 build/stm32h7xx_hal.o
 .debug_info    0x0000000000008625     0x4314 build/stm32h7xx_hal_tim.o
 .debug_info    0x000000000000c939     0x2166 build/stm32h7xx_hal_tim_ex.o
 .debug_info    0x000000000000ea9f      0xca3 build/system_stm32h7xx.o
 .debug_info    0x000000000000f742      0x303 build/list.o
 .debug_info    0x000000000000fa45     0x2941 build/queue.o
 .debug_info    0x0000000000012386     0x331b build/tasks.o
 .debug_info    0x00000000000156a1     0x1bbb build/timers.o
 .debug_info    0x000000000001725c     0x5194 build/cmsis_os2.o
 .debug_info    0x000000000001c3f0      0x602 build/heap_4.o
 .debug_info    0x000000000001c9f2      0x5b0 build/port.o
 .debug_info    0x000000000001cfa2     0x2018 build/LED.o
 .debug_info    0x000000000001efba     0x3566 build/main.o
 .debug_info    0x0000000000022520       0x22 build/startup_stm32h733xx.o
 .debug_info    0x0000000000022542      0x3a1 /usr/lib/gcc/arm-none-eabi/10.3.1/../../../arm-none-eabi/lib/thumb/v7e-m+dp/hard/libstdc++.a(del_ops.o)
 .debug_info    0x00000000000228e3      0xb6b /usr/lib/gcc/arm-none-eabi/10.3.1/../../../arm-none-eabi/lib/thumb/v7e-m+dp/hard/libstdc++.a(eh_arm.o)
 .debug_info    0x000000000002344e      0xa41 /usr/lib/gcc/arm-none-eabi/10.3.1/../../../arm-none-eabi/lib/thumb/v7e-m+dp/hard/libstdc++.a(eh_exception.o)
 .debug_info    0x0000000000023e8f      0xbd6 /usr/lib/gcc/arm-none-eabi/10.3.1/../../../arm-none-eabi/lib/thumb/v7e-m+dp/hard/libstdc++.a(eh_globals.o)
 .debug_info    0x0000000000024a65     0x22fa /usr/lib/gcc/arm-none-eabi/10.3.1/../../../arm-none-eabi/lib/thumb/v7e-m+dp/hard/libstdc++.a(eh_personality.o)
 .debug_info    0x0000000000026d5f      0xbd0 /usr/lib/gcc/arm-none-eabi/10.3.1/../../../arm-none-eabi/lib/thumb/v7e-m+dp/hard/libstdc++.a(eh_terminate.o)
 .debug_info    0x000000000002792f      0x3c7 /usr/lib/gcc/arm-none-eabi/10.3.1/../../../arm-none-eabi/lib/thumb/v7e-m+dp/hard/libstdc++.a(eh_unex_handler.o)
 .debug_info    0x0000000000027cf6      0xa44 /usr/lib/gcc/arm-none-eabi/10.3.1/../../../arm-none-eabi/lib/thumb/v7e-m+dp/hard/libstdc++.a(new_op.o)
 .debug_info    0x000000000002873a      0x8d7 /usr/lib/gcc/arm-none-eabi/10.3.1/../../../arm-none-eabi/lib/thumb/v7e-m+dp/hard/libstdc++.a(si_class_type_info.o)
 .debug_info    0x0000000000029011      0x66b /usr/lib/gcc/arm-none-eabi/10.3.1/../../../arm-none-eabi/lib/thumb/v7e-m+dp/hard/libstdc++.a(tinfo.o)
 .debug_info    0x000000000002967c      0x547 /usr/lib/gcc/arm-none-eabi/10.3.1/../../../arm-none-eabi/lib/thumb/v7e-m+dp/hard/libstdc++.a(bad_alloc.o)
 .debug_info    0x0000000000029bc3      0xaa5 /usr/lib/gcc/arm-none-eabi/10.3.1/../../../arm-none-eabi/lib/thumb/v7e-m+dp/hard/libstdc++.a(class_type_info.o)
 .debug_info    0x000000000002a668      0x8a2 /usr/lib/gcc/arm-none-eabi/10.3.1/../../../arm-none-eabi/lib/thumb/v7e-m+dp/hard/libstdc++.a(del_op.o)
 .debug_info    0x000000000002af0a     0x189b /usr/lib/gcc/arm-none-eabi/10.3.1/../../../arm-none-eabi/lib/thumb/v7e-m+dp/hard/libstdc++.a(eh_alloc.o)
 .debug_info    0x000000000002c7a5     0x1412 /usr/lib/gcc/arm-none-eabi/10.3.1/../../../arm-none-eabi/lib/thumb/v7e-m+dp/hard/libstdc++.a(eh_call.o)
 .debug_info    0x000000000002dbb7      0xf41 /usr/lib/gcc/arm-none-eabi/10.3.1/../../../arm-none-eabi/lib/thumb/v7e-m+dp/hard/libstdc++.a(eh_catch.o)
 .debug_info    0x000000000002eaf8      0x8d5 /usr/lib/gcc/arm-none-eabi/10.3.1/../../../arm-none-eabi/lib/thumb/v7e-m+dp/hard/libstdc++.a(eh_term_handler.o)
 .debug_info    0x000000000002f3cd      0xb7b /usr/lib/gcc/arm-none-eabi/10.3.1/../../../arm-none-eabi/lib/thumb/v7e-m+dp/hard/libstdc++.a(eh_throw.o)
 .debug_info    0x000000000002ff48      0x455 /usr/lib/gcc/arm-none-eabi/10.3.1/../../../arm-none-eabi/lib/thumb/v7e-m+dp/hard/libstdc++.a(new_handler.o)
 .debug_info    0x000000000003039d       0xcb /usr/lib/gcc/arm-none-eabi/10.3.1/../../../arm-none-eabi/lib/thumb/v7e-m+dp/hard/libc.a(lib_a-abort.o)
 .debug_info    0x0000000000030468      0x100 /usr/lib/gcc/arm-none-eabi/10.3.1/../../../arm-none-eabi/lib/thumb/v7e-m+dp/hard/libc.a(lib_a-atexit.o)
 .debug_info    0x0000000000030568      0x102 /usr/lib/gcc/arm-none-eabi/10.3.1/../../../arm-none-eabi/lib/thumb/v7e-m+dp/hard/libc.a(lib_a-fini.o)
 .debug_info    0x000000000003066a      0x92a /usr/lib/gcc/arm-none-eabi/10.3.1/../../../arm-none-eabi/lib/thumb/v7e-m+dp/hard/libc.a(lib_a-impure.o)
 .debug_info    0x0000000000030f94      0x11a /usr/lib/gcc/arm-none-eabi/10.3.1/../../../arm-none-eabi/lib/thumb/v7e-m+dp/hard/libc.a(lib_a-init.o)
 .debug_info    0x00000000000310ae      0x998 /usr/lib/gcc/arm-none-eabi/10.3.1/../../../arm-none-eabi/lib/thumb/v7e-m+dp/hard/libc.a(lib_a-malloc.o)
 .debug_info    0x0000000000031a46      0xe95 /usr/lib/gcc/arm-none-eabi/10.3.1/../../../arm-none-eabi/lib/thumb/v7e-m+dp/hard/libc.a(lib_a-mallocr.o)
 .debug_info    0x00000000000328db       0x26 /usr/lib/gcc/arm-none-eabi/10.3.1/../../../arm-none-eabi/lib/thumb/v7e-m+dp/hard/libc.a(lib_a-memcpy.o)
 .debug_info    0x0000000000032901      0x137 /usr/lib/gcc/arm-none-eabi/10.3.1/../../../arm-none-eabi/lib/thumb/v7e-m+dp/hard/libc.a(lib_a-memset.o)
 .debug_info    0x0000000000032a38      0x942 /usr/lib/gcc/arm-none-eabi/10.3.1/../../../arm-none-eabi/lib/thumb/v7e-m+dp/hard/libc.a(lib_a-mlock.o)
 .debug_info    0x000000000003337a      0x98e /usr/lib/gcc/arm-none-eabi/10.3.1/../../../arm-none-eabi/lib/thumb/v7e-m+dp/hard/libc.a(lib_a-sbrkr.o)
 .debug_info    0x0000000000033d08      0xf32 /usr/lib/gcc/arm-none-eabi/10.3.1/../../../arm-none-eabi/lib/thumb/v7e-m+dp/hard/libc.a(lib_a-signal.o)
 .debug_info    0x0000000000034c3a      0x9d7 /usr/lib/gcc/arm-none-eabi/10.3.1/../../../arm-none-eabi/lib/thumb/v7e-m+dp/hard/libc.a(lib_a-signalr.o)
 .debug_info    0x0000000000035611       0x26 /usr/lib/gcc/arm-none-eabi/10.3.1/../../../arm-none-eabi/lib/thumb/v7e-m+dp/hard/libc.a(lib_a-strcmp.o)
 .debug_info    0x0000000000035637      0x9b0 /usr/lib/gcc/arm-none-eabi/10.3.1/../../../arm-none-eabi/lib/thumb/v7e-m+dp/hard/libc.a(lib_a-__atexit.o)
 .debug_info    0x0000000000035fe7      0xa3d /usr/lib/gcc/arm-none-eabi/10.3.1/../../../arm-none-eabi/lib/thumb/v7e-m+dp/hard/libc.a(lib_a-__call_atexit.o)
 .debug_info    0x0000000000036a24      0xd10 /usr/lib/gcc/arm-none-eabi/10.3.1/../../../arm-none-eabi/lib/thumb/v7e-m+dp/hard/libc.a(lib_a-freer.o)
 .debug_info    0x0000000000037734      0xbda /usr/lib/gcc/arm-none-eabi/10.3.1/../../../arm-none-eabi/lib/thumb/v7e-m+dp/hard/libc.a(lib_a-reent.o)
 .debug_info    0x000000000003830e     0x1e0b /usr/lib/gcc/arm-none-eabi/10.3.1/thumb/v7e-m+dp/hard/libgcc.a(unwind-arm.o)
 .debug_info    0x000000000003a119       0x26 /usr/lib/gcc/arm-none-eabi/10.3.1/thumb/v7e-m+dp/hard/libgcc.a(libunwind.o)
 .debug_info    0x000000000003a13f      0xa03 /usr/lib/gcc/arm-none-eabi/10.3.1/thumb/v7e-m+dp/hard/libgcc.a(pr-support.o)
 .debug_info    0x000000000003ab42       0x9c /usr/lib/gcc/arm-none-eabi/10.3.1/../../../arm-none-eabi/lib/thumb/v7e-m+dp/hard/libnosys.a(getpid.o)
 .debug_info    0x000000000003abde       0xbf /usr/lib/gcc/arm-none-eabi/10.3.1/../../../arm-none-eabi/lib/thumb/v7e-m+dp/hard/libnosys.a(kill.o)
 .debug_info    0x000000000003ac9d       0x9d /usr/lib/gcc/arm-none-eabi/10.3.1/../../../arm-none-eabi/lib/thumb/v7e-m+dp/hard/libnosys.a(sbrk.o)
 .debug_info    0x000000000003ad3a       0xa3 /usr/lib/gcc/arm-none-eabi/10.3.1/../../../arm-none-eabi/lib/thumb/v7e-m+dp/hard/libnosys.a(_exit.o)

.debug_abbrev   0x0000000000000000     0xaedc
 .debug_abbrev  0x0000000000000000      0x17c build/stm32h7xx_it.o
 .debug_abbrev  0x000000000000017c      0x11c build/stm32h7xx_hal_msp.o
 .debug_abbrev  0x0000000000000298      0x211 build/stm32h7xx_hal_timebase_tim.o
 .debug_abbrev  0x00000000000004a9      0x395 build/stm32h7xx_hal_cortex.o
 .debug_abbrev  0x000000000000083e      0x27d build/stm32h7xx_hal_rcc.o
 .debug_abbrev  0x0000000000000abb      0x253 build/stm32h7xx_hal_gpio.o
 .debug_abbrev  0x0000000000000d0e      0x2b6 build/stm32h7xx_hal_pwr_ex.o
 .debug_abbrev  0x0000000000000fc4      0x26a build/stm32h7xx_hal.o
 .debug_abbrev  0x000000000000122e      0x289 build/stm32h7xx_hal_tim.o
 .debug_abbrev  0x00000000000014b7      0x29f build/stm32h7xx_hal_tim_ex.o
 .debug_abbrev  0x0000000000001756      0x12a build/system_stm32h7xx.o
 .debug_abbrev  0x0000000000001880      0x124 build/list.o
 .debug_abbrev  0x00000000000019a4      0x3c4 build/queue.o
 .debug_abbrev  0x0000000000001d68      0x387 build/tasks.o
 .debug_abbrev  0x00000000000020ef      0x366 build/timers.o
 .debug_abbrev  0x0000000000002455      0x559 build/cmsis_os2.o
 .debug_abbrev  0x00000000000029ae      0x269 build/heap_4.o
 .debug_abbrev  0x0000000000002c17      0x28a build/port.o
 .debug_abbrev  0x0000000000002ea1      0x46f build/LED.o
 .debug_abbrev  0x0000000000003310      0x575 build/main.o
 .debug_abbrev  0x0000000000003885       0x12 build/startup_stm32h733xx.o
 .debug_abbrev  0x0000000000003897      0x239 /usr/lib/gcc/arm-none-eabi/10.3.1/../../../arm-none-eabi/lib/thumb/v7e-m+dp/hard/libstdc++.a(del_ops.o)
 .debug_abbrev  0x0000000000003ad0      0x430 /usr/lib/gcc/arm-none-eabi/10.3.1/../../../arm-none-eabi/lib/thumb/v7e-m+dp/hard/libstdc++.a(eh_arm.o)
 .debug_abbrev  0x0000000000003f00      0x41e /usr/lib/gcc/arm-none-eabi/10.3.1/../../../arm-none-eabi/lib/thumb/v7e-m+dp/hard/libstdc++.a(eh_exception.o)
 .debug_abbrev  0x000000000000431e      0x382 /usr/lib/gcc/arm-none-eabi/10.3.1/../../../arm-none-eabi/lib/thumb/v7e-m+dp/hard/libstdc++.a(eh_globals.o)
 .debug_abbrev  0x00000000000046a0      0x6f4 /usr/lib/gcc/arm-none-eabi/10.3.1/../../../arm-none-eabi/lib/thumb/v7e-m+dp/hard/libstdc++.a(eh_personality.o)
 .debug_abbrev  0x0000000000004d94      0x43d /usr/lib/gcc/arm-none-eabi/10.3.1/../../../arm-none-eabi/lib/thumb/v7e-m+dp/hard/libstdc++.a(eh_terminate.o)
 .debug_abbrev  0x00000000000051d1      0x25d /usr/lib/gcc/arm-none-eabi/10.3.1/../../../arm-none-eabi/lib/thumb/v7e-m+dp/hard/libstdc++.a(eh_unex_handler.o)
 .debug_abbrev  0x000000000000542e      0x3b2 /usr/lib/gcc/arm-none-eabi/10.3.1/../../../arm-none-eabi/lib/thumb/v7e-m+dp/hard/libstdc++.a(new_op.o)
 .debug_abbrev  0x00000000000057e0      0x45f /usr/lib/gcc/arm-none-eabi/10.3.1/../../../arm-none-eabi/lib/thumb/v7e-m+dp/hard/libstdc++.a(si_class_type_info.o)
 .debug_abbrev  0x0000000000005c3f      0x37e /usr/lib/gcc/arm-none-eabi/10.3.1/../../../arm-none-eabi/lib/thumb/v7e-m+dp/hard/libstdc++.a(tinfo.o)
 .debug_abbrev  0x0000000000005fbd      0x2f6 /usr/lib/gcc/arm-none-eabi/10.3.1/../../../arm-none-eabi/lib/thumb/v7e-m+dp/hard/libstdc++.a(bad_alloc.o)
 .debug_abbrev  0x00000000000062b3      0x4b7 /usr/lib/gcc/arm-none-eabi/10.3.1/../../../arm-none-eabi/lib/thumb/v7e-m+dp/hard/libstdc++.a(class_type_info.o)
 .debug_abbrev  0x000000000000676a      0x2ee /usr/lib/gcc/arm-none-eabi/10.3.1/../../../arm-none-eabi/lib/thumb/v7e-m+dp/hard/libstdc++.a(del_op.o)
 .debug_abbrev  0x0000000000006a58      0x716 /usr/lib/gcc/arm-none-eabi/10.3.1/../../../arm-none-eabi/lib/thumb/v7e-m+dp/hard/libstdc++.a(eh_alloc.o)
 .debug_abbrev  0x000000000000716e      0x641 /usr/lib/gcc/arm-none-eabi/10.3.1/../../../arm-none-eabi/lib/thumb/v7e-m+dp/hard/libstdc++.a(eh_call.o)
 .debug_abbrev  0x00000000000077af      0x4c9 /usr/lib/gcc/arm-none-eabi/10.3.1/../../../arm-none-eabi/lib/thumb/v7e-m+dp/hard/libstdc++.a(eh_catch.o)
 .debug_abbrev  0x0000000000007c78      0x307 /usr/lib/gcc/arm-none-eabi/10.3.1/../../../arm-none-eabi/lib/thumb/v7e-m+dp/hard/libstdc++.a(eh_term_handler.o)
 .debug_abbrev  0x0000000000007f7f      0x4af /usr/lib/gcc/arm-none-eabi/10.3.1/../../../arm-none-eabi/lib/thumb/v7e-m+dp/hard/libstdc++.a(eh_throw.o)
 .debug_abbrev  0x000000000000842e      0x2d9 /usr/lib/gcc/arm-none-eabi/10.3.1/../../../arm-none-eabi/lib/thumb/v7e-m+dp/hard/libstdc++.a(new_handler.o)
 .debug_abbrev  0x0000000000008707       0x80 /usr/lib/gcc/arm-none-eabi/10.3.1/../../../arm-none-eabi/lib/thumb/v7e-m+dp/hard/libc.a(lib_a-abort.o)
 .debug_abbrev  0x0000000000008787       0xb7 /usr/lib/gcc/arm-none-eabi/10.3.1/../../../arm-none-eabi/lib/thumb/v7e-m+dp/hard/libc.a(lib_a-atexit.o)
 .debug_abbrev  0x000000000000883e       0xcf /usr/lib/gcc/arm-none-eabi/10.3.1/../../../arm-none-eabi/lib/thumb/v7e-m+dp/hard/libc.a(lib_a-fini.o)
 .debug_abbrev  0x000000000000890d      0x1b8 /usr/lib/gcc/arm-none-eabi/10.3.1/../../../arm-none-eabi/lib/thumb/v7e-m+dp/hard/libc.a(lib_a-impure.o)
 .debug_abbrev  0x0000000000008ac5       0xcc /usr/lib/gcc/arm-none-eabi/10.3.1/../../../arm-none-eabi/lib/thumb/v7e-m+dp/hard/libc.a(lib_a-init.o)
 .debug_abbrev  0x0000000000008b91      0x21d /usr/lib/gcc/arm-none-eabi/10.3.1/../../../arm-none-eabi/lib/thumb/v7e-m+dp/hard/libc.a(lib_a-malloc.o)
 .debug_abbrev  0x0000000000008dae      0x2f6 /usr/lib/gcc/arm-none-eabi/10.3.1/../../../arm-none-eabi/lib/thumb/v7e-m+dp/hard/libc.a(lib_a-mallocr.o)
 .debug_abbrev  0x00000000000090a4       0x14 /usr/lib/gcc/arm-none-eabi/10.3.1/../../../arm-none-eabi/lib/thumb/v7e-m+dp/hard/libc.a(lib_a-memcpy.o)
 .debug_abbrev  0x00000000000090b8       0xb4 /usr/lib/gcc/arm-none-eabi/10.3.1/../../../arm-none-eabi/lib/thumb/v7e-m+dp/hard/libc.a(lib_a-memset.o)
 .debug_abbrev  0x000000000000916c      0x1f0 /usr/lib/gcc/arm-none-eabi/10.3.1/../../../arm-none-eabi/lib/thumb/v7e-m+dp/hard/libc.a(lib_a-mlock.o)
 .debug_abbrev  0x000000000000935c      0x23d /usr/lib/gcc/arm-none-eabi/10.3.1/../../../arm-none-eabi/lib/thumb/v7e-m+dp/hard/libc.a(lib_a-sbrkr.o)
 .debug_abbrev  0x0000000000009599      0x321 /usr/lib/gcc/arm-none-eabi/10.3.1/../../../arm-none-eabi/lib/thumb/v7e-m+dp/hard/libc.a(lib_a-signal.o)
 .debug_abbrev  0x00000000000098ba      0x242 /usr/lib/gcc/arm-none-eabi/10.3.1/../../../arm-none-eabi/lib/thumb/v7e-m+dp/hard/libc.a(lib_a-signalr.o)
 .debug_abbrev  0x0000000000009afc       0x14 /usr/lib/gcc/arm-none-eabi/10.3.1/../../../arm-none-eabi/lib/thumb/v7e-m+dp/hard/libc.a(lib_a-strcmp.o)
 .debug_abbrev  0x0000000000009b10      0x23f /usr/lib/gcc/arm-none-eabi/10.3.1/../../../arm-none-eabi/lib/thumb/v7e-m+dp/hard/libc.a(lib_a-__atexit.o)
 .debug_abbrev  0x0000000000009d4f      0x2b2 /usr/lib/gcc/arm-none-eabi/10.3.1/../../../arm-none-eabi/lib/thumb/v7e-m+dp/hard/libc.a(lib_a-__call_atexit.o)
 .debug_abbrev  0x000000000000a001      0x2b1 /usr/lib/gcc/arm-none-eabi/10.3.1/../../../arm-none-eabi/lib/thumb/v7e-m+dp/hard/libc.a(lib_a-freer.o)
 .debug_abbrev  0x000000000000a2b2      0x2f4 /usr/lib/gcc/arm-none-eabi/10.3.1/../../../arm-none-eabi/lib/thumb/v7e-m+dp/hard/libc.a(lib_a-reent.o)
 .debug_abbrev  0x000000000000a5a6      0x46c /usr/lib/gcc/arm-none-eabi/10.3.1/thumb/v7e-m+dp/hard/libgcc.a(unwind-arm.o)
 .debug_abbrev  0x000000000000aa12       0x14 /usr/lib/gcc/arm-none-eabi/10.3.1/thumb/v7e-m+dp/hard/libgcc.a(libunwind.o)
 .debug_abbrev  0x000000000000aa26      0x2d3 /usr/lib/gcc/arm-none-eabi/10.3.1/thumb/v7e-m+dp/hard/libgcc.a(pr-support.o)
 .debug_abbrev  0x000000000000acf9       0x59 /usr/lib/gcc/arm-none-eabi/10.3.1/../../../arm-none-eabi/lib/thumb/v7e-m+dp/hard/libnosys.a(getpid.o)
 .debug_abbrev  0x000000000000ad52       0x7e /usr/lib/gcc/arm-none-eabi/10.3.1/../../../arm-none-eabi/lib/thumb/v7e-m+dp/hard/libnosys.a(kill.o)
 .debug_abbrev  0x000000000000add0       0xa2 /usr/lib/gcc/arm-none-eabi/10.3.1/../../../arm-none-eabi/lib/thumb/v7e-m+dp/hard/libnosys.a(sbrk.o)
 .debug_abbrev  0x000000000000ae72       0x6a /usr/lib/gcc/arm-none-eabi/10.3.1/../../../arm-none-eabi/lib/thumb/v7e-m+dp/hard/libnosys.a(_exit.o)

.debug_loc      0x0000000000000000    0x2055f
 .debug_loc     0x0000000000000000       0x20 build/stm32h7xx_it.o
 .debug_loc     0x0000000000000020       0x38 build/stm32h7xx_hal_msp.o
 .debug_loc     0x0000000000000058       0xcb build/stm32h7xx_hal_timebase_tim.o
 .debug_loc     0x0000000000000123      0x786 build/stm32h7xx_hal_cortex.o
 .debug_loc     0x00000000000008a9      0xa66 build/stm32h7xx_hal_rcc.o
 .debug_loc     0x000000000000130f      0x482 build/stm32h7xx_hal_gpio.o
 .debug_loc     0x0000000000001791      0x5ab build/stm32h7xx_hal_pwr_ex.o
 .debug_loc     0x0000000000001d3c      0x526 build/stm32h7xx_hal.o
 .debug_loc     0x0000000000002262     0x6278 build/stm32h7xx_hal_tim.o
 .debug_loc     0x00000000000084da     0x2b8e build/stm32h7xx_hal_tim_ex.o
 .debug_loc     0x000000000000b068      0x1d8 build/system_stm32h7xx.o
 .debug_loc     0x000000000000b240       0xe5 build/list.o
 .debug_loc     0x000000000000b325     0x1fa3 build/queue.o
 .debug_loc     0x000000000000d2c8     0x2c5f build/tasks.o
 .debug_loc     0x000000000000ff27     0x156d build/timers.o
 .debug_loc     0x0000000000011494     0x5c40 build/cmsis_os2.o
 .debug_loc     0x00000000000170d4      0x4e4 build/heap_4.o
 .debug_loc     0x00000000000175b8      0x1c0 build/port.o
 .debug_loc     0x0000000000017778      0x153 build/LED.o
 .debug_loc     0x00000000000178cb      0x146 build/main.o
 .debug_loc     0x0000000000017a11       0x25 /usr/lib/gcc/arm-none-eabi/10.3.1/../../../arm-none-eabi/lib/thumb/v7e-m+dp/hard/libstdc++.a(del_ops.o)
 .debug_loc     0x0000000000017a36      0x4c2 /usr/lib/gcc/arm-none-eabi/10.3.1/../../../arm-none-eabi/lib/thumb/v7e-m+dp/hard/libstdc++.a(eh_arm.o)
 .debug_loc     0x0000000000017ef8      0x150 /usr/lib/gcc/arm-none-eabi/10.3.1/../../../arm-none-eabi/lib/thumb/v7e-m+dp/hard/libstdc++.a(eh_exception.o)
 .debug_loc     0x0000000000018048     0x18a8 /usr/lib/gcc/arm-none-eabi/10.3.1/../../../arm-none-eabi/lib/thumb/v7e-m+dp/hard/libstdc++.a(eh_personality.o)
 .debug_loc     0x00000000000198f0       0xe2 /usr/lib/gcc/arm-none-eabi/10.3.1/../../../arm-none-eabi/lib/thumb/v7e-m+dp/hard/libstdc++.a(eh_terminate.o)
 .debug_loc     0x00000000000199d2       0x93 /usr/lib/gcc/arm-none-eabi/10.3.1/../../../arm-none-eabi/lib/thumb/v7e-m+dp/hard/libstdc++.a(new_op.o)
 .debug_loc     0x0000000000019a65      0x5a4 /usr/lib/gcc/arm-none-eabi/10.3.1/../../../arm-none-eabi/lib/thumb/v7e-m+dp/hard/libstdc++.a(si_class_type_info.o)
 .debug_loc     0x000000000001a009      0x214 /usr/lib/gcc/arm-none-eabi/10.3.1/../../../arm-none-eabi/lib/thumb/v7e-m+dp/hard/libstdc++.a(tinfo.o)
 .debug_loc     0x000000000001a21d       0xa5 /usr/lib/gcc/arm-none-eabi/10.3.1/../../../arm-none-eabi/lib/thumb/v7e-m+dp/hard/libstdc++.a(bad_alloc.o)
 .debug_loc     0x000000000001a2c2      0x4f2 /usr/lib/gcc/arm-none-eabi/10.3.1/../../../arm-none-eabi/lib/thumb/v7e-m+dp/hard/libstdc++.a(class_type_info.o)
 .debug_loc     0x000000000001a7b4       0x25 /usr/lib/gcc/arm-none-eabi/10.3.1/../../../arm-none-eabi/lib/thumb/v7e-m+dp/hard/libstdc++.a(del_op.o)
 .debug_loc     0x000000000001a7d9      0x5df /usr/lib/gcc/arm-none-eabi/10.3.1/../../../arm-none-eabi/lib/thumb/v7e-m+dp/hard/libstdc++.a(eh_alloc.o)
 .debug_loc     0x000000000001adb8      0x420 /usr/lib/gcc/arm-none-eabi/10.3.1/../../../arm-none-eabi/lib/thumb/v7e-m+dp/hard/libstdc++.a(eh_call.o)
 .debug_loc     0x000000000001b1d8      0x2ea /usr/lib/gcc/arm-none-eabi/10.3.1/../../../arm-none-eabi/lib/thumb/v7e-m+dp/hard/libstdc++.a(eh_catch.o)
 .debug_loc     0x000000000001b4c2      0x379 /usr/lib/gcc/arm-none-eabi/10.3.1/../../../arm-none-eabi/lib/thumb/v7e-m+dp/hard/libstdc++.a(eh_throw.o)
 .debug_loc     0x000000000001b83b       0x37 /usr/lib/gcc/arm-none-eabi/10.3.1/../../../arm-none-eabi/lib/thumb/v7e-m+dp/hard/libstdc++.a(new_handler.o)
 .debug_loc     0x000000000001b872       0x32 /usr/lib/gcc/arm-none-eabi/10.3.1/../../../arm-none-eabi/lib/thumb/v7e-m+dp/hard/libc.a(lib_a-atexit.o)
 .debug_loc     0x000000000001b8a4       0x68 /usr/lib/gcc/arm-none-eabi/10.3.1/../../../arm-none-eabi/lib/thumb/v7e-m+dp/hard/libc.a(lib_a-fini.o)
 .debug_loc     0x000000000001b90c       0xba /usr/lib/gcc/arm-none-eabi/10.3.1/../../../arm-none-eabi/lib/thumb/v7e-m+dp/hard/libc.a(lib_a-init.o)
 .debug_loc     0x000000000001b9c6       0x64 /usr/lib/gcc/arm-none-eabi/10.3.1/../../../arm-none-eabi/lib/thumb/v7e-m+dp/hard/libc.a(lib_a-malloc.o)
 .debug_loc     0x000000000001ba2a      0xea2 /usr/lib/gcc/arm-none-eabi/10.3.1/../../../arm-none-eabi/lib/thumb/v7e-m+dp/hard/libc.a(lib_a-mallocr.o)
 .debug_loc     0x000000000001c8cc      0x22c /usr/lib/gcc/arm-none-eabi/10.3.1/../../../arm-none-eabi/lib/thumb/v7e-m+dp/hard/libc.a(lib_a-memset.o)
 .debug_loc     0x000000000001caf8       0x6c /usr/lib/gcc/arm-none-eabi/10.3.1/../../../arm-none-eabi/lib/thumb/v7e-m+dp/hard/libc.a(lib_a-sbrkr.o)
 .debug_loc     0x000000000001cb64      0x967 /usr/lib/gcc/arm-none-eabi/10.3.1/../../../arm-none-eabi/lib/thumb/v7e-m+dp/hard/libc.a(lib_a-signal.o)
 .debug_loc     0x000000000001d4cb       0xd0 /usr/lib/gcc/arm-none-eabi/10.3.1/../../../arm-none-eabi/lib/thumb/v7e-m+dp/hard/libc.a(lib_a-signalr.o)
 .debug_loc     0x000000000001d59b      0x138 /usr/lib/gcc/arm-none-eabi/10.3.1/../../../arm-none-eabi/lib/thumb/v7e-m+dp/hard/libc.a(lib_a-__atexit.o)
 .debug_loc     0x000000000001d6d3      0x1cc /usr/lib/gcc/arm-none-eabi/10.3.1/../../../arm-none-eabi/lib/thumb/v7e-m+dp/hard/libc.a(lib_a-__call_atexit.o)
 .debug_loc     0x000000000001d89f      0x6cc /usr/lib/gcc/arm-none-eabi/10.3.1/../../../arm-none-eabi/lib/thumb/v7e-m+dp/hard/libc.a(lib_a-freer.o)
 .debug_loc     0x000000000001df6b      0x23e /usr/lib/gcc/arm-none-eabi/10.3.1/../../../arm-none-eabi/lib/thumb/v7e-m+dp/hard/libc.a(lib_a-reent.o)
 .debug_loc     0x000000000001e1a9     0x1cef /usr/lib/gcc/arm-none-eabi/10.3.1/thumb/v7e-m+dp/hard/libgcc.a(unwind-arm.o)
 .debug_loc     0x000000000001fe98      0x64f /usr/lib/gcc/arm-none-eabi/10.3.1/thumb/v7e-m+dp/hard/libgcc.a(pr-support.o)
 .debug_loc     0x00000000000204e7       0x25 /usr/lib/gcc/arm-none-eabi/10.3.1/../../../arm-none-eabi/lib/thumb/v7e-m+dp/hard/libnosys.a(kill.o)
 .debug_loc     0x000000000002050c       0x3e /usr/lib/gcc/arm-none-eabi/10.3.1/../../../arm-none-eabi/lib/thumb/v7e-m+dp/hard/libnosys.a(sbrk.o)
 .debug_loc     0x000000000002054a       0x15 /usr/lib/gcc/arm-none-eabi/10.3.1/../../../arm-none-eabi/lib/thumb/v7e-m+dp/hard/libnosys.a(_exit.o)

.debug_aranges  0x0000000000000000     0x1ac0
 .debug_aranges
                0x0000000000000000       0x50 build/stm32h7xx_it.o
 .debug_aranges
                0x0000000000000050       0x20 build/stm32h7xx_hal_msp.o
 .debug_aranges
                0x0000000000000070       0x30 build/stm32h7xx_hal_timebase_tim.o
 .debug_aranges
                0x00000000000000a0       0xb0 build/stm32h7xx_hal_cortex.o
 .debug_aranges
                0x0000000000000150       0x88 build/stm32h7xx_hal_rcc.o
 .debug_aranges
                0x00000000000001d8       0x58 build/stm32h7xx_hal_gpio.o
 .debug_aranges
                0x0000000000000230      0x148 build/stm32h7xx_hal_pwr_ex.o
 .debug_aranges
                0x0000000000000378      0x1c8 build/stm32h7xx_hal.o
 .debug_aranges
                0x0000000000000540      0x3e0 build/stm32h7xx_hal_tim.o
 .debug_aranges
                0x0000000000000920      0x198 build/stm32h7xx_hal_tim_ex.o
 .debug_aranges
                0x0000000000000ab8       0x28 build/system_stm32h7xx.o
 .debug_aranges
                0x0000000000000ae0       0x40 build/list.o
 .debug_aranges
                0x0000000000000b20      0x158 build/queue.o
 .debug_aranges
                0x0000000000000c78      0x208 build/tasks.o
 .debug_aranges
                0x0000000000000e80       0xf0 build/timers.o
 .debug_aranges
                0x0000000000000f70      0x2a0 build/cmsis_os2.o
 .debug_aranges
                0x0000000000001210       0x58 build/heap_4.o
 .debug_aranges
                0x0000000000001268       0x80 build/port.o
 .debug_aranges
                0x00000000000012e8       0x30 build/LED.o
 .debug_aranges
                0x0000000000001318       0x48 build/main.o
 .debug_aranges
                0x0000000000001360       0x28 build/startup_stm32h733xx.o
 .debug_aranges
                0x0000000000001388       0x20 /usr/lib/gcc/arm-none-eabi/10.3.1/../../../arm-none-eabi/lib/thumb/v7e-m+dp/hard/libstdc++.a(del_ops.o)
 .debug_aranges
                0x00000000000013a8       0x30 /usr/lib/gcc/arm-none-eabi/10.3.1/../../../arm-none-eabi/lib/thumb/v7e-m+dp/hard/libstdc++.a(eh_arm.o)
 .debug_aranges
                0x00000000000013d8       0x70 /usr/lib/gcc/arm-none-eabi/10.3.1/../../../arm-none-eabi/lib/thumb/v7e-m+dp/hard/libstdc++.a(eh_exception.o)
 .debug_aranges
                0x0000000000001448       0x20 /usr/lib/gcc/arm-none-eabi/10.3.1/../../../arm-none-eabi/lib/thumb/v7e-m+dp/hard/libstdc++.a(eh_globals.o)
 .debug_aranges
                0x0000000000001468       0x38 /usr/lib/gcc/arm-none-eabi/10.3.1/../../../arm-none-eabi/lib/thumb/v7e-m+dp/hard/libstdc++.a(eh_personality.o)
 .debug_aranges
                0x00000000000014a0       0x58 /usr/lib/gcc/arm-none-eabi/10.3.1/../../../arm-none-eabi/lib/thumb/v7e-m+dp/hard/libstdc++.a(eh_terminate.o)
 .debug_aranges
                0x00000000000014f8       0x18 /usr/lib/gcc/arm-none-eabi/10.3.1/../../../arm-none-eabi/lib/thumb/v7e-m+dp/hard/libstdc++.a(eh_unex_handler.o)
 .debug_aranges
                0x0000000000001510       0x20 /usr/lib/gcc/arm-none-eabi/10.3.1/../../../arm-none-eabi/lib/thumb/v7e-m+dp/hard/libstdc++.a(new_op.o)
 .debug_aranges
                0x0000000000001530       0x40 /usr/lib/gcc/arm-none-eabi/10.3.1/../../../arm-none-eabi/lib/thumb/v7e-m+dp/hard/libstdc++.a(si_class_type_info.o)
 .debug_aranges
                0x0000000000001570       0x48 /usr/lib/gcc/arm-none-eabi/10.3.1/../../../arm-none-eabi/lib/thumb/v7e-m+dp/hard/libstdc++.a(tinfo.o)
 .debug_aranges
                0x00000000000015b8       0x30 /usr/lib/gcc/arm-none-eabi/10.3.1/../../../arm-none-eabi/lib/thumb/v7e-m+dp/hard/libstdc++.a(bad_alloc.o)
 .debug_aranges
                0x00000000000015e8       0x50 /usr/lib/gcc/arm-none-eabi/10.3.1/../../../arm-none-eabi/lib/thumb/v7e-m+dp/hard/libstdc++.a(class_type_info.o)
 .debug_aranges
                0x0000000000001638       0x20 /usr/lib/gcc/arm-none-eabi/10.3.1/../../../arm-none-eabi/lib/thumb/v7e-m+dp/hard/libstdc++.a(del_op.o)
 .debug_aranges
                0x0000000000001658       0x58 /usr/lib/gcc/arm-none-eabi/10.3.1/../../../arm-none-eabi/lib/thumb/v7e-m+dp/hard/libstdc++.a(eh_alloc.o)
 .debug_aranges
                0x00000000000016b0       0x30 /usr/lib/gcc/arm-none-eabi/10.3.1/../../../arm-none-eabi/lib/thumb/v7e-m+dp/hard/libstdc++.a(eh_call.o)
 .debug_aranges
                0x00000000000016e0       0x40 /usr/lib/gcc/arm-none-eabi/10.3.1/../../../arm-none-eabi/lib/thumb/v7e-m+dp/hard/libstdc++.a(eh_catch.o)
 .debug_aranges
                0x0000000000001720       0x18 /usr/lib/gcc/arm-none-eabi/10.3.1/../../../arm-none-eabi/lib/thumb/v7e-m+dp/hard/libstdc++.a(eh_term_handler.o)
 .debug_aranges
                0x0000000000001738       0x38 /usr/lib/gcc/arm-none-eabi/10.3.1/../../../arm-none-eabi/lib/thumb/v7e-m+dp/hard/libstdc++.a(eh_throw.o)
 .debug_aranges
                0x0000000000001770       0x28 /usr/lib/gcc/arm-none-eabi/10.3.1/../../../arm-none-eabi/lib/thumb/v7e-m+dp/hard/libstdc++.a(new_handler.o)
 .debug_aranges
                0x0000000000001798       0x20 /usr/lib/gcc/arm-none-eabi/10.3.1/../../../arm-none-eabi/lib/thumb/v7e-m+dp/hard/libc.a(lib_a-abort.o)
 .debug_aranges
                0x00000000000017b8       0x20 /usr/lib/gcc/arm-none-eabi/10.3.1/../../../arm-none-eabi/lib/thumb/v7e-m+dp/hard/libc.a(lib_a-atexit.o)
 .debug_aranges
                0x00000000000017d8       0x20 /usr/lib/gcc/arm-none-eabi/10.3.1/../../../arm-none-eabi/lib/thumb/v7e-m+dp/hard/libc.a(lib_a-fini.o)
 .debug_aranges
                0x00000000000017f8       0x18 /usr/lib/gcc/arm-none-eabi/10.3.1/../../../arm-none-eabi/lib/thumb/v7e-m+dp/hard/libc.a(lib_a-impure.o)
 .debug_aranges
                0x0000000000001810       0x20 /usr/lib/gcc/arm-none-eabi/10.3.1/../../../arm-none-eabi/lib/thumb/v7e-m+dp/hard/libc.a(lib_a-init.o)
 .debug_aranges
                0x0000000000001830       0x20 /usr/lib/gcc/arm-none-eabi/10.3.1/../../../arm-none-eabi/lib/thumb/v7e-m+dp/hard/libc.a(lib_a-malloc.o)
 .debug_aranges
                0x0000000000001850       0x20 /usr/lib/gcc/arm-none-eabi/10.3.1/../../../arm-none-eabi/lib/thumb/v7e-m+dp/hard/libc.a(lib_a-mallocr.o)
 .debug_aranges
                0x0000000000001870       0x20 /usr/lib/gcc/arm-none-eabi/10.3.1/../../../arm-none-eabi/lib/thumb/v7e-m+dp/hard/libc.a(lib_a-memcpy.o)
 .debug_aranges
                0x0000000000001890       0x20 /usr/lib/gcc/arm-none-eabi/10.3.1/../../../arm-none-eabi/lib/thumb/v7e-m+dp/hard/libc.a(lib_a-memset.o)
 .debug_aranges
                0x00000000000018b0       0x20 /usr/lib/gcc/arm-none-eabi/10.3.1/../../../arm-none-eabi/lib/thumb/v7e-m+dp/hard/libc.a(lib_a-mlock.o)
 .debug_aranges
                0x00000000000018d0       0x20 /usr/lib/gcc/arm-none-eabi/10.3.1/../../../arm-none-eabi/lib/thumb/v7e-m+dp/hard/libc.a(lib_a-sbrkr.o)
 .debug_aranges
                0x00000000000018f0       0x20 /usr/lib/gcc/arm-none-eabi/10.3.1/../../../arm-none-eabi/lib/thumb/v7e-m+dp/hard/libc.a(lib_a-signal.o)
 .debug_aranges
                0x0000000000001910       0x20 /usr/lib/gcc/arm-none-eabi/10.3.1/../../../arm-none-eabi/lib/thumb/v7e-m+dp/hard/libc.a(lib_a-signalr.o)
 .debug_aranges
                0x0000000000001930       0x20 /usr/lib/gcc/arm-none-eabi/10.3.1/../../../arm-none-eabi/lib/thumb/v7e-m+dp/hard/libc.a(lib_a-strcmp.o)
 .debug_aranges
                0x0000000000001950       0x20 /usr/lib/gcc/arm-none-eabi/10.3.1/../../../arm-none-eabi/lib/thumb/v7e-m+dp/hard/libc.a(lib_a-__atexit.o)
 .debug_aranges
                0x0000000000001970       0x28 /usr/lib/gcc/arm-none-eabi/10.3.1/../../../arm-none-eabi/lib/thumb/v7e-m+dp/hard/libc.a(lib_a-__call_atexit.o)
 .debug_aranges
                0x0000000000001998       0x20 /usr/lib/gcc/arm-none-eabi/10.3.1/../../../arm-none-eabi/lib/thumb/v7e-m+dp/hard/libc.a(lib_a-freer.o)
 .debug_aranges
                0x00000000000019b8       0x20 /usr/lib/gcc/arm-none-eabi/10.3.1/../../../arm-none-eabi/lib/thumb/v7e-m+dp/hard/libc.a(lib_a-reent.o)
 .debug_aranges
                0x00000000000019d8       0x20 /usr/lib/gcc/arm-none-eabi/10.3.1/thumb/v7e-m+dp/hard/libgcc.a(unwind-arm.o)
 .debug_aranges
                0x00000000000019f8       0x20 /usr/lib/gcc/arm-none-eabi/10.3.1/thumb/v7e-m+dp/hard/libgcc.a(libunwind.o)
 .debug_aranges
                0x0000000000001a18       0x28 /usr/lib/gcc/arm-none-eabi/10.3.1/thumb/v7e-m+dp/hard/libgcc.a(pr-support.o)
 .debug_aranges
                0x0000000000001a40       0x20 /usr/lib/gcc/arm-none-eabi/10.3.1/../../../arm-none-eabi/lib/thumb/v7e-m+dp/hard/libnosys.a(getpid.o)
 .debug_aranges
                0x0000000000001a60       0x20 /usr/lib/gcc/arm-none-eabi/10.3.1/../../../arm-none-eabi/lib/thumb/v7e-m+dp/hard/libnosys.a(kill.o)
 .debug_aranges
                0x0000000000001a80       0x20 /usr/lib/gcc/arm-none-eabi/10.3.1/../../../arm-none-eabi/lib/thumb/v7e-m+dp/hard/libnosys.a(sbrk.o)
 .debug_aranges
                0x0000000000001aa0       0x20 /usr/lib/gcc/arm-none-eabi/10.3.1/../../../arm-none-eabi/lib/thumb/v7e-m+dp/hard/libnosys.a(_exit.o)

.debug_ranges   0x0000000000000000     0x2220
 .debug_ranges  0x0000000000000000       0x40 build/stm32h7xx_it.o
 .debug_ranges  0x0000000000000040       0x10 build/stm32h7xx_hal_msp.o
 .debug_ranges  0x0000000000000050       0x20 build/stm32h7xx_hal_timebase_tim.o
 .debug_ranges  0x0000000000000070      0x100 build/stm32h7xx_hal_cortex.o
 .debug_ranges  0x0000000000000170       0xe8 build/stm32h7xx_hal_rcc.o
 .debug_ranges  0x0000000000000258       0x48 build/stm32h7xx_hal_gpio.o
 .debug_ranges  0x00000000000002a0      0x198 build/stm32h7xx_hal_pwr_ex.o
 .debug_ranges  0x0000000000000438      0x1b8 build/stm32h7xx_hal.o
 .debug_ranges  0x00000000000005f0      0x3d0 build/stm32h7xx_hal_tim.o
 .debug_ranges  0x00000000000009c0      0x188 build/stm32h7xx_hal_tim_ex.o
 .debug_ranges  0x0000000000000b48       0x18 build/system_stm32h7xx.o
 .debug_ranges  0x0000000000000b60       0x30 build/list.o
 .debug_ranges  0x0000000000000b90      0x200 build/queue.o
 .debug_ranges  0x0000000000000d90      0x338 build/tasks.o
 .debug_ranges  0x00000000000010c8       0xe0 build/timers.o
 .debug_ranges  0x00000000000011a8      0x2a8 build/cmsis_os2.o
 .debug_ranges  0x0000000000001450       0x48 build/heap_4.o
 .debug_ranges  0x0000000000001498       0x88 build/port.o
 .debug_ranges  0x0000000000001520       0x20 build/LED.o
 .debug_ranges  0x0000000000001540       0x38 build/main.o
 .debug_ranges  0x0000000000001578       0x20 build/startup_stm32h733xx.o
 .debug_ranges  0x0000000000001598       0x10 /usr/lib/gcc/arm-none-eabi/10.3.1/../../../arm-none-eabi/lib/thumb/v7e-m+dp/hard/libstdc++.a(del_ops.o)
 .debug_ranges  0x00000000000015a8       0xc0 /usr/lib/gcc/arm-none-eabi/10.3.1/../../../arm-none-eabi/lib/thumb/v7e-m+dp/hard/libstdc++.a(eh_arm.o)
 .debug_ranges  0x0000000000001668       0x60 /usr/lib/gcc/arm-none-eabi/10.3.1/../../../arm-none-eabi/lib/thumb/v7e-m+dp/hard/libstdc++.a(eh_exception.o)
 .debug_ranges  0x00000000000016c8       0x10 /usr/lib/gcc/arm-none-eabi/10.3.1/../../../arm-none-eabi/lib/thumb/v7e-m+dp/hard/libstdc++.a(eh_globals.o)
 .debug_ranges  0x00000000000016d8      0x2a0 /usr/lib/gcc/arm-none-eabi/10.3.1/../../../arm-none-eabi/lib/thumb/v7e-m+dp/hard/libstdc++.a(eh_personality.o)
 .debug_ranges  0x0000000000001978       0x78 /usr/lib/gcc/arm-none-eabi/10.3.1/../../../arm-none-eabi/lib/thumb/v7e-m+dp/hard/libstdc++.a(eh_terminate.o)
 .debug_ranges  0x00000000000019f0       0x40 /usr/lib/gcc/arm-none-eabi/10.3.1/../../../arm-none-eabi/lib/thumb/v7e-m+dp/hard/libstdc++.a(new_op.o)
 .debug_ranges  0x0000000000001a30       0x60 /usr/lib/gcc/arm-none-eabi/10.3.1/../../../arm-none-eabi/lib/thumb/v7e-m+dp/hard/libstdc++.a(si_class_type_info.o)
 .debug_ranges  0x0000000000001a90       0x68 /usr/lib/gcc/arm-none-eabi/10.3.1/../../../arm-none-eabi/lib/thumb/v7e-m+dp/hard/libstdc++.a(tinfo.o)
 .debug_ranges  0x0000000000001af8       0x38 /usr/lib/gcc/arm-none-eabi/10.3.1/../../../arm-none-eabi/lib/thumb/v7e-m+dp/hard/libstdc++.a(bad_alloc.o)
 .debug_ranges  0x0000000000001b30       0x98 /usr/lib/gcc/arm-none-eabi/10.3.1/../../../arm-none-eabi/lib/thumb/v7e-m+dp/hard/libstdc++.a(class_type_info.o)
 .debug_ranges  0x0000000000001bc8       0x10 /usr/lib/gcc/arm-none-eabi/10.3.1/../../../arm-none-eabi/lib/thumb/v7e-m+dp/hard/libstdc++.a(del_op.o)
 .debug_ranges  0x0000000000001bd8      0x1d0 /usr/lib/gcc/arm-none-eabi/10.3.1/../../../arm-none-eabi/lib/thumb/v7e-m+dp/hard/libstdc++.a(eh_alloc.o)
 .debug_ranges  0x0000000000001da8       0xb8 /usr/lib/gcc/arm-none-eabi/10.3.1/../../../arm-none-eabi/lib/thumb/v7e-m+dp/hard/libstdc++.a(eh_call.o)
 .debug_ranges  0x0000000000001e60       0x90 /usr/lib/gcc/arm-none-eabi/10.3.1/../../../arm-none-eabi/lib/thumb/v7e-m+dp/hard/libstdc++.a(eh_catch.o)
 .debug_ranges  0x0000000000001ef0       0x78 /usr/lib/gcc/arm-none-eabi/10.3.1/../../../arm-none-eabi/lib/thumb/v7e-m+dp/hard/libstdc++.a(eh_throw.o)
 .debug_ranges  0x0000000000001f68       0x18 /usr/lib/gcc/arm-none-eabi/10.3.1/../../../arm-none-eabi/lib/thumb/v7e-m+dp/hard/libstdc++.a(new_handler.o)
 .debug_ranges  0x0000000000001f80       0x50 /usr/lib/gcc/arm-none-eabi/10.3.1/../../../arm-none-eabi/lib/thumb/v7e-m+dp/hard/libc.a(lib_a-mallocr.o)
 .debug_ranges  0x0000000000001fd0       0xc8 /usr/lib/gcc/arm-none-eabi/10.3.1/../../../arm-none-eabi/lib/thumb/v7e-m+dp/hard/libc.a(lib_a-signal.o)
 .debug_ranges  0x0000000000002098       0x50 /usr/lib/gcc/arm-none-eabi/10.3.1/../../../arm-none-eabi/lib/thumb/v7e-m+dp/hard/libc.a(lib_a-__call_atexit.o)
 .debug_ranges  0x00000000000020e8       0x18 /usr/lib/gcc/arm-none-eabi/10.3.1/../../../arm-none-eabi/lib/thumb/v7e-m+dp/hard/libc.a(lib_a-reent.o)
 .debug_ranges  0x0000000000002100      0x108 /usr/lib/gcc/arm-none-eabi/10.3.1/thumb/v7e-m+dp/hard/libgcc.a(unwind-arm.o)
 .debug_ranges  0x0000000000002208       0x18 /usr/lib/gcc/arm-none-eabi/10.3.1/thumb/v7e-m+dp/hard/libgcc.a(pr-support.o)

.debug_line     0x0000000000000000    0x1dbe7
 .debug_line    0x0000000000000000      0x1f4 build/stm32h7xx_it.o
 .debug_line    0x00000000000001f4      0x107 build/stm32h7xx_hal_msp.o
 .debug_line    0x00000000000002fb      0x231 build/stm32h7xx_hal_timebase_tim.o
 .debug_line    0x000000000000052c      0x6fe build/stm32h7xx_hal_cortex.o
 .debug_line    0x0000000000000c2a     0x116a build/stm32h7xx_hal_rcc.o
 .debug_line    0x0000000000001d94      0x61e build/stm32h7xx_hal_gpio.o
 .debug_line    0x00000000000023b2      0x922 build/stm32h7xx_hal_pwr_ex.o
 .debug_line    0x0000000000002cd4      0x8cb build/stm32h7xx_hal.o
 .debug_line    0x000000000000359f     0x505e build/stm32h7xx_hal_tim.o
 .debug_line    0x00000000000085fd     0x205a build/stm32h7xx_hal_tim_ex.o
 .debug_line    0x000000000000a657      0x367 build/system_stm32h7xx.o
 .debug_line    0x000000000000a9be      0x2d0 build/list.o
 .debug_line    0x000000000000ac8e     0x1f54 build/queue.o
 .debug_line    0x000000000000cbe2     0x2c79 build/tasks.o
 .debug_line    0x000000000000f85b      0xe31 build/timers.o
 .debug_line    0x000000000001068c     0x28f9 build/cmsis_os2.o
 .debug_line    0x0000000000012f85      0x651 build/heap_4.o
 .debug_line    0x00000000000135d6      0x681 build/port.o
 .debug_line    0x0000000000013c57      0x334 build/LED.o
 .debug_line    0x0000000000013f8b      0x681 build/main.o
 .debug_line    0x000000000001460c       0x76 build/startup_stm32h733xx.o
 .debug_line    0x0000000000014682      0x214 /usr/lib/gcc/arm-none-eabi/10.3.1/../../../arm-none-eabi/lib/thumb/v7e-m+dp/hard/libstdc++.a(del_ops.o)
 .debug_line    0x0000000000014896      0x5cb /usr/lib/gcc/arm-none-eabi/10.3.1/../../../arm-none-eabi/lib/thumb/v7e-m+dp/hard/libstdc++.a(eh_arm.o)
 .debug_line    0x0000000000014e61      0x3b7 /usr/lib/gcc/arm-none-eabi/10.3.1/../../../arm-none-eabi/lib/thumb/v7e-m+dp/hard/libstdc++.a(eh_exception.o)
 .debug_line    0x0000000000015218      0x31a /usr/lib/gcc/arm-none-eabi/10.3.1/../../../arm-none-eabi/lib/thumb/v7e-m+dp/hard/libstdc++.a(eh_globals.o)
 .debug_line    0x0000000000015532      0xefb /usr/lib/gcc/arm-none-eabi/10.3.1/../../../arm-none-eabi/lib/thumb/v7e-m+dp/hard/libstdc++.a(eh_personality.o)
 .debug_line    0x000000000001642d      0x453 /usr/lib/gcc/arm-none-eabi/10.3.1/../../../arm-none-eabi/lib/thumb/v7e-m+dp/hard/libstdc++.a(eh_terminate.o)
 .debug_line    0x0000000000016880      0x2c4 /usr/lib/gcc/arm-none-eabi/10.3.1/../../../arm-none-eabi/lib/thumb/v7e-m+dp/hard/libstdc++.a(eh_unex_handler.o)
 .debug_line    0x0000000000016b44      0x2d5 /usr/lib/gcc/arm-none-eabi/10.3.1/../../../arm-none-eabi/lib/thumb/v7e-m+dp/hard/libstdc++.a(new_op.o)
 .debug_line    0x0000000000016e19      0x3a0 /usr/lib/gcc/arm-none-eabi/10.3.1/../../../arm-none-eabi/lib/thumb/v7e-m+dp/hard/libstdc++.a(si_class_type_info.o)
 .debug_line    0x00000000000171b9      0x351 /usr/lib/gcc/arm-none-eabi/10.3.1/../../../arm-none-eabi/lib/thumb/v7e-m+dp/hard/libstdc++.a(tinfo.o)
 .debug_line    0x000000000001750a      0x25d /usr/lib/gcc/arm-none-eabi/10.3.1/../../../arm-none-eabi/lib/thumb/v7e-m+dp/hard/libstdc++.a(bad_alloc.o)
 .debug_line    0x0000000000017767      0x40c /usr/lib/gcc/arm-none-eabi/10.3.1/../../../arm-none-eabi/lib/thumb/v7e-m+dp/hard/libstdc++.a(class_type_info.o)
 .debug_line    0x0000000000017b73      0x26d /usr/lib/gcc/arm-none-eabi/10.3.1/../../../arm-none-eabi/lib/thumb/v7e-m+dp/hard/libstdc++.a(del_op.o)
 .debug_line    0x0000000000017de0      0x824 /usr/lib/gcc/arm-none-eabi/10.3.1/../../../arm-none-eabi/lib/thumb/v7e-m+dp/hard/libstdc++.a(eh_alloc.o)
 .debug_line    0x0000000000018604      0x572 /usr/lib/gcc/arm-none-eabi/10.3.1/../../../arm-none-eabi/lib/thumb/v7e-m+dp/hard/libstdc++.a(eh_call.o)
 .debug_line    0x0000000000018b76      0x539 /usr/lib/gcc/arm-none-eabi/10.3.1/../../../arm-none-eabi/lib/thumb/v7e-m+dp/hard/libstdc++.a(eh_catch.o)
 .debug_line    0x00000000000190af      0x2ef /usr/lib/gcc/arm-none-eabi/10.3.1/../../../arm-none-eabi/lib/thumb/v7e-m+dp/hard/libstdc++.a(eh_term_handler.o)
 .debug_line    0x000000000001939e      0x4f9 /usr/lib/gcc/arm-none-eabi/10.3.1/../../../arm-none-eabi/lib/thumb/v7e-m+dp/hard/libstdc++.a(eh_throw.o)
 .debug_line    0x0000000000019897      0x244 /usr/lib/gcc/arm-none-eabi/10.3.1/../../../arm-none-eabi/lib/thumb/v7e-m+dp/hard/libstdc++.a(new_handler.o)
 .debug_line    0x0000000000019adb      0x109 /usr/lib/gcc/arm-none-eabi/10.3.1/../../../arm-none-eabi/lib/thumb/v7e-m+dp/hard/libc.a(lib_a-abort.o)
 .debug_line    0x0000000000019be4       0xc0 /usr/lib/gcc/arm-none-eabi/10.3.1/../../../arm-none-eabi/lib/thumb/v7e-m+dp/hard/libc.a(lib_a-atexit.o)
 .debug_line    0x0000000000019ca4       0xed /usr/lib/gcc/arm-none-eabi/10.3.1/../../../arm-none-eabi/lib/thumb/v7e-m+dp/hard/libc.a(lib_a-fini.o)
 .debug_line    0x0000000000019d91       0xe4 /usr/lib/gcc/arm-none-eabi/10.3.1/../../../arm-none-eabi/lib/thumb/v7e-m+dp/hard/libc.a(lib_a-impure.o)
 .debug_line    0x0000000000019e75      0x138 /usr/lib/gcc/arm-none-eabi/10.3.1/../../../arm-none-eabi/lib/thumb/v7e-m+dp/hard/libc.a(lib_a-init.o)
 .debug_line    0x0000000000019fad      0x15f /usr/lib/gcc/arm-none-eabi/10.3.1/../../../arm-none-eabi/lib/thumb/v7e-m+dp/hard/libc.a(lib_a-malloc.o)
 .debug_line    0x000000000001a10c      0x8bc /usr/lib/gcc/arm-none-eabi/10.3.1/../../../arm-none-eabi/lib/thumb/v7e-m+dp/hard/libc.a(lib_a-mallocr.o)
 .debug_line    0x000000000001a9c8       0xbe /usr/lib/gcc/arm-none-eabi/10.3.1/../../../arm-none-eabi/lib/thumb/v7e-m+dp/hard/libc.a(lib_a-memcpy.o)
 .debug_line    0x000000000001aa86      0x1bf /usr/lib/gcc/arm-none-eabi/10.3.1/../../../arm-none-eabi/lib/thumb/v7e-m+dp/hard/libc.a(lib_a-memset.o)
 .debug_line    0x000000000001ac45      0x13e /usr/lib/gcc/arm-none-eabi/10.3.1/../../../arm-none-eabi/lib/thumb/v7e-m+dp/hard/libc.a(lib_a-mlock.o)
 .debug_line    0x000000000001ad83      0x183 /usr/lib/gcc/arm-none-eabi/10.3.1/../../../arm-none-eabi/lib/thumb/v7e-m+dp/hard/libc.a(lib_a-sbrkr.o)
 .debug_line    0x000000000001af06      0x652 /usr/lib/gcc/arm-none-eabi/10.3.1/../../../arm-none-eabi/lib/thumb/v7e-m+dp/hard/libc.a(lib_a-signal.o)
 .debug_line    0x000000000001b558      0x1aa /usr/lib/gcc/arm-none-eabi/10.3.1/../../../arm-none-eabi/lib/thumb/v7e-m+dp/hard/libc.a(lib_a-signalr.o)
 .debug_line    0x000000000001b702      0x137 /usr/lib/gcc/arm-none-eabi/10.3.1/../../../arm-none-eabi/lib/thumb/v7e-m+dp/hard/libc.a(lib_a-strcmp.o)
 .debug_line    0x000000000001b839      0x19e /usr/lib/gcc/arm-none-eabi/10.3.1/../../../arm-none-eabi/lib/thumb/v7e-m+dp/hard/libc.a(lib_a-__atexit.o)
 .debug_line    0x000000000001b9d7      0x28d /usr/lib/gcc/arm-none-eabi/10.3.1/../../../arm-none-eabi/lib/thumb/v7e-m+dp/hard/libc.a(lib_a-__call_atexit.o)
 .debug_line    0x000000000001bc64      0x4fb /usr/lib/gcc/arm-none-eabi/10.3.1/../../../arm-none-eabi/lib/thumb/v7e-m+dp/hard/libc.a(lib_a-freer.o)
 .debug_line    0x000000000001c15f      0x28d /usr/lib/gcc/arm-none-eabi/10.3.1/../../../arm-none-eabi/lib/thumb/v7e-m+dp/hard/libc.a(lib_a-reent.o)
 .debug_line    0x000000000001c3ec     0x1023 /usr/lib/gcc/arm-none-eabi/10.3.1/thumb/v7e-m+dp/hard/libgcc.a(unwind-arm.o)
 .debug_line    0x000000000001d40f       0xad /usr/lib/gcc/arm-none-eabi/10.3.1/thumb/v7e-m+dp/hard/libgcc.a(libunwind.o)
 .debug_line    0x000000000001d4bc      0x55e /usr/lib/gcc/arm-none-eabi/10.3.1/thumb/v7e-m+dp/hard/libgcc.a(pr-support.o)
 .debug_line    0x000000000001da1a       0x70 /usr/lib/gcc/arm-none-eabi/10.3.1/../../../arm-none-eabi/lib/thumb/v7e-m+dp/hard/libnosys.a(getpid.o)
 .debug_line    0x000000000001da8a       0x6f /usr/lib/gcc/arm-none-eabi/10.3.1/../../../arm-none-eabi/lib/thumb/v7e-m+dp/hard/libnosys.a(kill.o)
 .debug_line    0x000000000001daf9       0x79 /usr/lib/gcc/arm-none-eabi/10.3.1/../../../arm-none-eabi/lib/thumb/v7e-m+dp/hard/libnosys.a(sbrk.o)
 .debug_line    0x000000000001db72       0x75 /usr/lib/gcc/arm-none-eabi/10.3.1/../../../arm-none-eabi/lib/thumb/v7e-m+dp/hard/libnosys.a(_exit.o)

.debug_str      0x0000000000000000     0xd63a
 .debug_str     0x0000000000000000      0x668 build/stm32h7xx_it.o
                                        0x859 (size before relaxing)
 .debug_str     0x0000000000000668      0xa18 build/stm32h7xx_hal_msp.o
                                        0xbe1 (size before relaxing)
 .debug_str     0x0000000000001080      0x196 build/stm32h7xx_hal_timebase_tim.o
                                       0x13ad (size before relaxing)
 .debug_str     0x0000000000001216      0x5a0 build/stm32h7xx_hal_cortex.o
                                        0xff1 (size before relaxing)
 .debug_str     0x00000000000017b6      0x45b build/stm32h7xx_hal_rcc.o
                                        0x979 (size before relaxing)
 .debug_str     0x0000000000001c11      0x235 build/stm32h7xx_hal_gpio.o
                                        0x69e (size before relaxing)
 .debug_str     0x0000000000001e46      0x52f build/stm32h7xx_hal_pwr_ex.o
                                        0x97d (size before relaxing)
 .debug_str     0x0000000000002375      0x726 build/stm32h7xx_hal.o
                                       0x1584 (size before relaxing)
 .debug_str     0x0000000000002a9b      0xf40 build/stm32h7xx_hal_tim.o
                                       0x17eb (size before relaxing)
 .debug_str     0x00000000000039db      0x6f1 build/stm32h7xx_hal_tim_ex.o
                                       0x116c (size before relaxing)
 .debug_str     0x00000000000040cc       0x3d build/system_stm32h7xx.o
                                        0x666 (size before relaxing)
 .debug_str     0x0000000000004109      0x14d build/list.o
                                        0x2d3 (size before relaxing)
 .debug_str     0x0000000000004256      0xa21 build/queue.o
                                        0xcd6 (size before relaxing)
 .debug_str     0x0000000000004c77      0xc95 build/tasks.o
                                       0x12a3 (size before relaxing)
 .debug_str     0x000000000000590c      0x5d8 build/timers.o
                                        0xc0f (size before relaxing)
 .debug_str     0x0000000000005ee4     0x10b9 build/cmsis_os2.o
                                       0x24fb (size before relaxing)
 .debug_str     0x0000000000006f9d      0x2bf build/heap_4.o
                                        0x4d7 (size before relaxing)
 .debug_str     0x000000000000725c      0x17d build/port.o
                                        0x449 (size before relaxing)
 .debug_str     0x00000000000073d9      0xff5 build/LED.o
                                       0x120c (size before relaxing)
 .debug_str     0x00000000000083ce      0x309 build/main.o
                                       0x2490 (size before relaxing)
 .debug_str     0x00000000000086d7       0x22 build/startup_stm32h733xx.o
                                         0x44 (size before relaxing)
 .debug_str     0x00000000000086f9      0x16e /usr/lib/gcc/arm-none-eabi/10.3.1/../../../arm-none-eabi/lib/thumb/v7e-m+dp/hard/libstdc++.a(del_ops.o)
                                        0x614 (size before relaxing)
 .debug_str     0x0000000000008867      0x57c /usr/lib/gcc/arm-none-eabi/10.3.1/../../../arm-none-eabi/lib/thumb/v7e-m+dp/hard/libstdc++.a(eh_arm.o)
                                        0xb3e (size before relaxing)
 .debug_str     0x0000000000008de3      0x4b6 /usr/lib/gcc/arm-none-eabi/10.3.1/../../../arm-none-eabi/lib/thumb/v7e-m+dp/hard/libstdc++.a(eh_exception.o)
                                        0xa10 (size before relaxing)
 .debug_str     0x0000000000009299      0x1ee /usr/lib/gcc/arm-none-eabi/10.3.1/../../../arm-none-eabi/lib/thumb/v7e-m+dp/hard/libstdc++.a(eh_globals.o)
                                        0xa22 (size before relaxing)
 .debug_str     0x0000000000009487      0x6ae /usr/lib/gcc/arm-none-eabi/10.3.1/../../../arm-none-eabi/lib/thumb/v7e-m+dp/hard/libstdc++.a(eh_personality.o)
                                       0x1112 (size before relaxing)
 .debug_str     0x0000000000009b35      0x296 /usr/lib/gcc/arm-none-eabi/10.3.1/../../../arm-none-eabi/lib/thumb/v7e-m+dp/hard/libstdc++.a(eh_terminate.o)
                                        0x98f (size before relaxing)
 .debug_str     0x0000000000009dcb      0x108 /usr/lib/gcc/arm-none-eabi/10.3.1/../../../arm-none-eabi/lib/thumb/v7e-m+dp/hard/libstdc++.a(eh_unex_handler.o)
                                        0x690 (size before relaxing)
 .debug_str     0x0000000000009ed3      0x17e /usr/lib/gcc/arm-none-eabi/10.3.1/../../../arm-none-eabi/lib/thumb/v7e-m+dp/hard/libstdc++.a(new_op.o)
                                        0x7e2 (size before relaxing)
 .debug_str     0x000000000000a051      0x6fd /usr/lib/gcc/arm-none-eabi/10.3.1/../../../arm-none-eabi/lib/thumb/v7e-m+dp/hard/libstdc++.a(si_class_type_info.o)
                                        0x89a (size before relaxing)
 .debug_str     0x000000000000a74e      0x312 /usr/lib/gcc/arm-none-eabi/10.3.1/../../../arm-none-eabi/lib/thumb/v7e-m+dp/hard/libstdc++.a(tinfo.o)
                                        0x54d (size before relaxing)
 .debug_str     0x000000000000aa60      0x189 /usr/lib/gcc/arm-none-eabi/10.3.1/../../../arm-none-eabi/lib/thumb/v7e-m+dp/hard/libstdc++.a(bad_alloc.o)
                                        0x6d3 (size before relaxing)
 .debug_str     0x000000000000abe9      0x52d /usr/lib/gcc/arm-none-eabi/10.3.1/../../../arm-none-eabi/lib/thumb/v7e-m+dp/hard/libstdc++.a(class_type_info.o)
                                        0xa14 (size before relaxing)
 .debug_str     0x000000000000b116       0xfb /usr/lib/gcc/arm-none-eabi/10.3.1/../../../arm-none-eabi/lib/thumb/v7e-m+dp/hard/libstdc++.a(del_op.o)
                                        0x71b (size before relaxing)
 .debug_str     0x000000000000b211      0x4ba /usr/lib/gcc/arm-none-eabi/10.3.1/../../../arm-none-eabi/lib/thumb/v7e-m+dp/hard/libstdc++.a(eh_alloc.o)
                                        0xe6b (size before relaxing)
 .debug_str     0x000000000000b6cb      0x1e0 /usr/lib/gcc/arm-none-eabi/10.3.1/../../../arm-none-eabi/lib/thumb/v7e-m+dp/hard/libstdc++.a(eh_call.o)
                                        0xdff (size before relaxing)
 .debug_str     0x000000000000b8ab      0x1c8 /usr/lib/gcc/arm-none-eabi/10.3.1/../../../arm-none-eabi/lib/thumb/v7e-m+dp/hard/libstdc++.a(eh_catch.o)
                                        0xb75 (size before relaxing)
 .debug_str     0x000000000000ba73      0x108 /usr/lib/gcc/arm-none-eabi/10.3.1/../../../arm-none-eabi/lib/thumb/v7e-m+dp/hard/libstdc++.a(eh_term_handler.o)
                                        0x7a0 (size before relaxing)
 .debug_str     0x000000000000bb7b      0x223 /usr/lib/gcc/arm-none-eabi/10.3.1/../../../arm-none-eabi/lib/thumb/v7e-m+dp/hard/libstdc++.a(eh_throw.o)
                                        0xb42 (size before relaxing)
 .debug_str     0x000000000000bd9e      0x171 /usr/lib/gcc/arm-none-eabi/10.3.1/../../../arm-none-eabi/lib/thumb/v7e-m+dp/hard/libstdc++.a(new_handler.o)
                                        0x6aa (size before relaxing)
 .debug_str     0x000000000000bf0f      0x112 /usr/lib/gcc/arm-none-eabi/10.3.1/../../../arm-none-eabi/lib/thumb/v7e-m+dp/hard/libc.a(lib_a-abort.o)
                                        0x1ad (size before relaxing)
 .debug_str     0x000000000000c021       0x78 /usr/lib/gcc/arm-none-eabi/10.3.1/../../../arm-none-eabi/lib/thumb/v7e-m+dp/hard/libc.a(lib_a-atexit.o)
                                        0x1e7 (size before relaxing)
 .debug_str     0x000000000000c099       0xc1 /usr/lib/gcc/arm-none-eabi/10.3.1/../../../arm-none-eabi/lib/thumb/v7e-m+dp/hard/libc.a(lib_a-fini.o)
                                        0x1df (size before relaxing)
 .debug_str     0x000000000000c15a      0x415 /usr/lib/gcc/arm-none-eabi/10.3.1/../../../arm-none-eabi/lib/thumb/v7e-m+dp/hard/libc.a(lib_a-impure.o)
                                        0x585 (size before relaxing)
 .debug_str     0x000000000000c56f       0x96 /usr/lib/gcc/arm-none-eabi/10.3.1/../../../arm-none-eabi/lib/thumb/v7e-m+dp/hard/libc.a(lib_a-init.o)
                                        0x209 (size before relaxing)
 .debug_str     0x000000000000c605       0x52 /usr/lib/gcc/arm-none-eabi/10.3.1/../../../arm-none-eabi/lib/thumb/v7e-m+dp/hard/libc.a(lib_a-malloc.o)
                                        0x599 (size before relaxing)
 .debug_str     0x000000000000c657      0x207 /usr/lib/gcc/arm-none-eabi/10.3.1/../../../arm-none-eabi/lib/thumb/v7e-m+dp/hard/libc.a(lib_a-mallocr.o)
                                        0x78a (size before relaxing)
 .debug_str     0x000000000000c85e       0xb1 /usr/lib/gcc/arm-none-eabi/10.3.1/../../../arm-none-eabi/lib/thumb/v7e-m+dp/hard/libc.a(lib_a-memcpy.o)
 .debug_str     0x000000000000c90f       0xa5 /usr/lib/gcc/arm-none-eabi/10.3.1/../../../arm-none-eabi/lib/thumb/v7e-m+dp/hard/libc.a(lib_a-memset.o)
                                        0x1be (size before relaxing)
 .debug_str     0x000000000000c9b4       0x4c /usr/lib/gcc/arm-none-eabi/10.3.1/../../../arm-none-eabi/lib/thumb/v7e-m+dp/hard/libc.a(lib_a-mlock.o)
                                        0x592 (size before relaxing)
 .debug_str     0x000000000000ca00       0x3d /usr/lib/gcc/arm-none-eabi/10.3.1/../../../arm-none-eabi/lib/thumb/v7e-m+dp/hard/libc.a(lib_a-sbrkr.o)
                                        0x57c (size before relaxing)
 .debug_str     0x000000000000ca3d       0xf7 /usr/lib/gcc/arm-none-eabi/10.3.1/../../../arm-none-eabi/lib/thumb/v7e-m+dp/hard/libc.a(lib_a-signal.o)
                                        0x5f4 (size before relaxing)
 .debug_str     0x000000000000cb34       0x42 /usr/lib/gcc/arm-none-eabi/10.3.1/../../../arm-none-eabi/lib/thumb/v7e-m+dp/hard/libc.a(lib_a-signalr.o)
                                        0x581 (size before relaxing)
 .debug_str     0x000000000000cb76       0x42 /usr/lib/gcc/arm-none-eabi/10.3.1/../../../arm-none-eabi/lib/thumb/v7e-m+dp/hard/libc.a(lib_a-strcmp.o)
                                         0xb0 (size before relaxing)
 .debug_str     0x000000000000cbb8       0x36 /usr/lib/gcc/arm-none-eabi/10.3.1/../../../arm-none-eabi/lib/thumb/v7e-m+dp/hard/libc.a(lib_a-__atexit.o)
                                        0x5bf (size before relaxing)
 .debug_str     0x000000000000cbee       0x8d /usr/lib/gcc/arm-none-eabi/10.3.1/../../../arm-none-eabi/lib/thumb/v7e-m+dp/hard/libc.a(lib_a-__call_atexit.o)
                                        0x5eb (size before relaxing)
 .debug_str     0x000000000000cc7b       0x34 /usr/lib/gcc/arm-none-eabi/10.3.1/../../../arm-none-eabi/lib/thumb/v7e-m+dp/hard/libc.a(lib_a-freer.o)
                                        0x6d4 (size before relaxing)
 .debug_str     0x000000000000ccaf       0x5e /usr/lib/gcc/arm-none-eabi/10.3.1/../../../arm-none-eabi/lib/thumb/v7e-m+dp/hard/libc.a(lib_a-reent.o)
                                        0x5a4 (size before relaxing)
 .debug_str     0x000000000000cd0d      0x714 /usr/lib/gcc/arm-none-eabi/10.3.1/thumb/v7e-m+dp/hard/libgcc.a(unwind-arm.o)
                                        0xc47 (size before relaxing)
 .debug_str     0x000000000000d421       0x30 /usr/lib/gcc/arm-none-eabi/10.3.1/thumb/v7e-m+dp/hard/libgcc.a(libunwind.o)
                                         0xaa (size before relaxing)
 .debug_str     0x000000000000d451       0x61 /usr/lib/gcc/arm-none-eabi/10.3.1/thumb/v7e-m+dp/hard/libgcc.a(pr-support.o)
                                        0x569 (size before relaxing)
 .debug_str     0x000000000000d4b2       0xef /usr/lib/gcc/arm-none-eabi/10.3.1/../../../arm-none-eabi/lib/thumb/v7e-m+dp/hard/libnosys.a(getpid.o)
                                        0x192 (size before relaxing)
 .debug_str     0x000000000000d5a1       0x2e /usr/lib/gcc/arm-none-eabi/10.3.1/../../../arm-none-eabi/lib/thumb/v7e-m+dp/hard/libnosys.a(kill.o)
                                        0x18e (size before relaxing)
 .debug_str     0x000000000000d5cf       0x3c /usr/lib/gcc/arm-none-eabi/10.3.1/../../../arm-none-eabi/lib/thumb/v7e-m+dp/hard/libnosys.a(sbrk.o)
                                        0x114 (size before relaxing)
 .debug_str     0x000000000000d60b       0x2f /usr/lib/gcc/arm-none-eabi/10.3.1/../../../arm-none-eabi/lib/thumb/v7e-m+dp/hard/libnosys.a(_exit.o)
                                        0x184 (size before relaxing)

.debug_frame    0x0000000000000000     0x4788
 .debug_frame   0x0000000000000000       0x88 build/stm32h7xx_it.o
 .debug_frame   0x0000000000000088       0x2c build/stm32h7xx_hal_msp.o
 .debug_frame   0x00000000000000b4       0x50 build/stm32h7xx_hal_timebase_tim.o
 .debug_frame   0x0000000000000104      0x158 build/stm32h7xx_hal_cortex.o
 .debug_frame   0x000000000000025c      0x184 build/stm32h7xx_hal_rcc.o
 .debug_frame   0x00000000000003e0       0xd4 build/stm32h7xx_hal_gpio.o
 .debug_frame   0x00000000000004b4      0x2d4 build/stm32h7xx_hal_pwr_ex.o
 .debug_frame   0x0000000000000788      0x3c0 build/stm32h7xx_hal.o
 .debug_frame   0x0000000000000b48      0xb6c build/stm32h7xx_hal_tim.o
 .debug_frame   0x00000000000016b4      0x4b0 build/stm32h7xx_hal_tim_ex.o
 .debug_frame   0x0000000000001b64       0x3c build/system_stm32h7xx.o
 .debug_frame   0x0000000000001ba0       0x70 build/list.o
 .debug_frame   0x0000000000001c10      0x458 build/queue.o
 .debug_frame   0x0000000000002068      0x688 build/tasks.o
 .debug_frame   0x00000000000026f0      0x30c build/timers.o
 .debug_frame   0x00000000000029fc      0x900 build/cmsis_os2.o
 .debug_frame   0x00000000000032fc       0xd0 build/heap_4.o
 .debug_frame   0x00000000000033cc      0x110 build/port.o
 .debug_frame   0x00000000000034dc       0x50 build/LED.o
 .debug_frame   0x000000000000352c       0xac build/main.o
 .debug_frame   0x00000000000035d8       0x20 /usr/lib/gcc/arm-none-eabi/10.3.1/../../../arm-none-eabi/lib/thumb/v7e-m+dp/hard/libstdc++.a(del_ops.o)
 .debug_frame   0x00000000000035f8       0x6c /usr/lib/gcc/arm-none-eabi/10.3.1/../../../arm-none-eabi/lib/thumb/v7e-m+dp/hard/libstdc++.a(eh_arm.o)
 .debug_frame   0x0000000000003664       0xf0 /usr/lib/gcc/arm-none-eabi/10.3.1/../../../arm-none-eabi/lib/thumb/v7e-m+dp/hard/libstdc++.a(eh_exception.o)
 .debug_frame   0x0000000000003754       0x30 /usr/lib/gcc/arm-none-eabi/10.3.1/../../../arm-none-eabi/lib/thumb/v7e-m+dp/hard/libstdc++.a(eh_globals.o)
 .debug_frame   0x0000000000003784       0xb4 /usr/lib/gcc/arm-none-eabi/10.3.1/../../../arm-none-eabi/lib/thumb/v7e-m+dp/hard/libstdc++.a(eh_personality.o)
 .debug_frame   0x0000000000003838       0xb0 /usr/lib/gcc/arm-none-eabi/10.3.1/../../../arm-none-eabi/lib/thumb/v7e-m+dp/hard/libstdc++.a(eh_terminate.o)
 .debug_frame   0x00000000000038e8       0x28 /usr/lib/gcc/arm-none-eabi/10.3.1/../../../arm-none-eabi/lib/thumb/v7e-m+dp/hard/libstdc++.a(new_op.o)
 .debug_frame   0x0000000000003910       0xdc /usr/lib/gcc/arm-none-eabi/10.3.1/../../../arm-none-eabi/lib/thumb/v7e-m+dp/hard/libstdc++.a(si_class_type_info.o)
 .debug_frame   0x00000000000039ec       0x90 /usr/lib/gcc/arm-none-eabi/10.3.1/../../../arm-none-eabi/lib/thumb/v7e-m+dp/hard/libstdc++.a(tinfo.o)
 .debug_frame   0x0000000000003a7c       0x50 /usr/lib/gcc/arm-none-eabi/10.3.1/../../../arm-none-eabi/lib/thumb/v7e-m+dp/hard/libstdc++.a(bad_alloc.o)
 .debug_frame   0x0000000000003acc       0xdc /usr/lib/gcc/arm-none-eabi/10.3.1/../../../arm-none-eabi/lib/thumb/v7e-m+dp/hard/libstdc++.a(class_type_info.o)
 .debug_frame   0x0000000000003ba8       0x20 /usr/lib/gcc/arm-none-eabi/10.3.1/../../../arm-none-eabi/lib/thumb/v7e-m+dp/hard/libstdc++.a(del_op.o)
 .debug_frame   0x0000000000003bc8       0xd8 /usr/lib/gcc/arm-none-eabi/10.3.1/../../../arm-none-eabi/lib/thumb/v7e-m+dp/hard/libstdc++.a(eh_alloc.o)
 .debug_frame   0x0000000000003ca0       0x60 /usr/lib/gcc/arm-none-eabi/10.3.1/../../../arm-none-eabi/lib/thumb/v7e-m+dp/hard/libstdc++.a(eh_call.o)
 .debug_frame   0x0000000000003d00       0x94 /usr/lib/gcc/arm-none-eabi/10.3.1/../../../arm-none-eabi/lib/thumb/v7e-m+dp/hard/libstdc++.a(eh_catch.o)
 .debug_frame   0x0000000000003d94       0x88 /usr/lib/gcc/arm-none-eabi/10.3.1/../../../arm-none-eabi/lib/thumb/v7e-m+dp/hard/libstdc++.a(eh_throw.o)
 .debug_frame   0x0000000000003e1c       0x30 /usr/lib/gcc/arm-none-eabi/10.3.1/../../../arm-none-eabi/lib/thumb/v7e-m+dp/hard/libstdc++.a(new_handler.o)
 .debug_frame   0x0000000000003e4c       0x28 /usr/lib/gcc/arm-none-eabi/10.3.1/../../../arm-none-eabi/lib/thumb/v7e-m+dp/hard/libc.a(lib_a-abort.o)
 .debug_frame   0x0000000000003e74       0x20 /usr/lib/gcc/arm-none-eabi/10.3.1/../../../arm-none-eabi/lib/thumb/v7e-m+dp/hard/libc.a(lib_a-atexit.o)
 .debug_frame   0x0000000000003e94       0x34 /usr/lib/gcc/arm-none-eabi/10.3.1/../../../arm-none-eabi/lib/thumb/v7e-m+dp/hard/libc.a(lib_a-fini.o)
 .debug_frame   0x0000000000003ec8       0x2c /usr/lib/gcc/arm-none-eabi/10.3.1/../../../arm-none-eabi/lib/thumb/v7e-m+dp/hard/libc.a(lib_a-init.o)
 .debug_frame   0x0000000000003ef4       0x30 /usr/lib/gcc/arm-none-eabi/10.3.1/../../../arm-none-eabi/lib/thumb/v7e-m+dp/hard/libc.a(lib_a-malloc.o)
 .debug_frame   0x0000000000003f24       0x4c /usr/lib/gcc/arm-none-eabi/10.3.1/../../../arm-none-eabi/lib/thumb/v7e-m+dp/hard/libc.a(lib_a-mallocr.o)
 .debug_frame   0x0000000000003f70       0x2c /usr/lib/gcc/arm-none-eabi/10.3.1/../../../arm-none-eabi/lib/thumb/v7e-m+dp/hard/libc.a(lib_a-memset.o)
 .debug_frame   0x0000000000003f9c       0x30 /usr/lib/gcc/arm-none-eabi/10.3.1/../../../arm-none-eabi/lib/thumb/v7e-m+dp/hard/libc.a(lib_a-mlock.o)
 .debug_frame   0x0000000000003fcc       0x2c /usr/lib/gcc/arm-none-eabi/10.3.1/../../../arm-none-eabi/lib/thumb/v7e-m+dp/hard/libc.a(lib_a-sbrkr.o)
 .debug_frame   0x0000000000003ff8      0x114 /usr/lib/gcc/arm-none-eabi/10.3.1/../../../arm-none-eabi/lib/thumb/v7e-m+dp/hard/libc.a(lib_a-signal.o)
 .debug_frame   0x000000000000410c       0x3c /usr/lib/gcc/arm-none-eabi/10.3.1/../../../arm-none-eabi/lib/thumb/v7e-m+dp/hard/libc.a(lib_a-signalr.o)
 .debug_frame   0x0000000000004148       0x68 /usr/lib/gcc/arm-none-eabi/10.3.1/../../../arm-none-eabi/lib/thumb/v7e-m+dp/hard/libc.a(lib_a-strcmp.o)
 .debug_frame   0x00000000000041b0       0x34 /usr/lib/gcc/arm-none-eabi/10.3.1/../../../arm-none-eabi/lib/thumb/v7e-m+dp/hard/libc.a(lib_a-__atexit.o)
 .debug_frame   0x00000000000041e4       0x5c /usr/lib/gcc/arm-none-eabi/10.3.1/../../../arm-none-eabi/lib/thumb/v7e-m+dp/hard/libc.a(lib_a-__call_atexit.o)
 .debug_frame   0x0000000000004240       0x8c /usr/lib/gcc/arm-none-eabi/10.3.1/../../../arm-none-eabi/lib/thumb/v7e-m+dp/hard/libc.a(lib_a-freer.o)
 .debug_frame   0x00000000000042cc       0x64 /usr/lib/gcc/arm-none-eabi/10.3.1/../../../arm-none-eabi/lib/thumb/v7e-m+dp/hard/libc.a(lib_a-reent.o)
 .debug_frame   0x0000000000004330      0x2d4 /usr/lib/gcc/arm-none-eabi/10.3.1/thumb/v7e-m+dp/hard/libgcc.a(unwind-arm.o)
 .debug_frame   0x0000000000004604      0x104 /usr/lib/gcc/arm-none-eabi/10.3.1/thumb/v7e-m+dp/hard/libgcc.a(pr-support.o)
 .debug_frame   0x0000000000004708       0x20 /usr/lib/gcc/arm-none-eabi/10.3.1/../../../arm-none-eabi/lib/thumb/v7e-m+dp/hard/libnosys.a(getpid.o)
 .debug_frame   0x0000000000004728       0x20 /usr/lib/gcc/arm-none-eabi/10.3.1/../../../arm-none-eabi/lib/thumb/v7e-m+dp/hard/libnosys.a(kill.o)
 .debug_frame   0x0000000000004748       0x20 /usr/lib/gcc/arm-none-eabi/10.3.1/../../../arm-none-eabi/lib/thumb/v7e-m+dp/hard/libnosys.a(sbrk.o)
 .debug_frame   0x0000000000004768       0x20 /usr/lib/gcc/arm-none-eabi/10.3.1/../../../arm-none-eabi/lib/thumb/v7e-m+dp/hard/libnosys.a(_exit.o)

.stab           0x0000000000000000       0x3c
 .stab          0x0000000000000000       0x24 /usr/lib/gcc/arm-none-eabi/10.3.1/../../../arm-none-eabi/lib/thumb/v7e-m+dp/hard/libnosys.a(getpid.o)
 .stab          0x0000000000000024       0x18 /usr/lib/gcc/arm-none-eabi/10.3.1/../../../arm-none-eabi/lib/thumb/v7e-m+dp/hard/libnosys.a(kill.o)
                                         0x24 (size before relaxing)

.stabstr        0x0000000000000000       0x76
 .stabstr       0x0000000000000000       0x76 /usr/lib/gcc/arm-none-eabi/10.3.1/../../../arm-none-eabi/lib/thumb/v7e-m+dp/hard/libnosys.a(getpid.o)

Cross Reference Table

Symbol                                            File
ADC3_IRQHandler                                   build/startup_stm32h733xx.o
ADC_IRQHandler                                    build/startup_stm32h733xx.o
BDMA_Channel0_IRQHandler                          build/startup_stm32h733xx.o
BDMA_Channel1_IRQHandler                          build/startup_stm32h733xx.o
BDMA_Channel2_IRQHandler                          build/startup_stm32h733xx.o
BDMA_Channel3_IRQHandler                          build/startup_stm32h733xx.o
BDMA_Channel4_IRQHandler                          build/startup_stm32h733xx.o
BDMA_Channel5_IRQHandler                          build/startup_stm32h733xx.o
BDMA_Channel6_IRQHandler                          build/startup_stm32h733xx.o
BDMA_Channel7_IRQHandler                          build/startup_stm32h733xx.o
BusFault_Handler                                  build/stm32h7xx_it.o
CEC_IRQHandler                                    build/startup_stm32h733xx.o
COMP1_IRQHandler                                  build/startup_stm32h733xx.o
CORDIC_IRQHandler                                 build/startup_stm32h733xx.o
CRS_IRQHandler                                    build/startup_stm32h733xx.o
CRYP_IRQHandler                                   build/startup_stm32h733xx.o
D1CorePrescTable                                  build/system_stm32h7xx.o
                                                  build/stm32h7xx_hal.o
                                                  build/stm32h7xx_hal_rcc_ex.o
                                                  build/stm32h7xx_hal_rcc.o
DCMI_PSSI_IRQHandler                              build/startup_stm32h733xx.o
DFSDM1_FLT0_IRQHandler                            build/startup_stm32h733xx.o
DFSDM1_FLT1_IRQHandler                            build/startup_stm32h733xx.o
DFSDM1_FLT2_IRQHandler                            build/startup_stm32h733xx.o
DFSDM1_FLT3_IRQHandler                            build/startup_stm32h733xx.o
DMA1_Stream0_IRQHandler                           build/startup_stm32h733xx.o
DMA1_Stream1_IRQHandler                           build/startup_stm32h733xx.o
DMA1_Stream2_IRQHandler                           build/startup_stm32h733xx.o
DMA1_Stream3_IRQHandler                           build/startup_stm32h733xx.o
DMA1_Stream4_IRQHandler                           build/startup_stm32h733xx.o
DMA1_Stream5_IRQHandler                           build/startup_stm32h733xx.o
DMA1_Stream6_IRQHandler                           build/startup_stm32h733xx.o
DMA1_Stream7_IRQHandler                           build/startup_stm32h733xx.o
DMA2D_IRQHandler                                  build/startup_stm32h733xx.o
DMA2_Stream0_IRQHandler                           build/startup_stm32h733xx.o
DMA2_Stream1_IRQHandler                           build/startup_stm32h733xx.o
DMA2_Stream2_IRQHandler                           build/startup_stm32h733xx.o
DMA2_Stream3_IRQHandler                           build/startup_stm32h733xx.o
DMA2_Stream4_IRQHandler                           build/startup_stm32h733xx.o
DMA2_Stream5_IRQHandler                           build/startup_stm32h733xx.o
DMA2_Stream6_IRQHandler                           build/startup_stm32h733xx.o
DMA2_Stream7_IRQHandler                           build/startup_stm32h733xx.o
DMAMUX1_OVR_IRQHandler                            build/startup_stm32h733xx.o
DMAMUX2_OVR_IRQHandler                            build/startup_stm32h733xx.o
DTS_IRQHandler                                    build/startup_stm32h733xx.o
DebugMon_Handler                                  build/stm32h7xx_it.o
Default_Handler                                   build/startup_stm32h733xx.o
ECC_IRQHandler                                    build/startup_stm32h733xx.o
ETH_IRQHandler                                    build/startup_stm32h733xx.o
ETH_WKUP_IRQHandler                               build/startup_stm32h733xx.o
EXTI0_IRQHandler                                  build/startup_stm32h733xx.o
EXTI15_10_IRQHandler                              build/startup_stm32h733xx.o
EXTI1_IRQHandler                                  build/startup_stm32h733xx.o
EXTI2_IRQHandler                                  build/startup_stm32h733xx.o
EXTI3_IRQHandler                                  build/startup_stm32h733xx.o
EXTI4_IRQHandler                                  build/startup_stm32h733xx.o
EXTI9_5_IRQHandler                                build/startup_stm32h733xx.o
Error_Handler                                     build/main.o
FDCAN1_IT0_IRQHandler                             build/startup_stm32h733xx.o
FDCAN1_IT1_IRQHandler                             build/startup_stm32h733xx.o
FDCAN2_IT0_IRQHandler                             build/startup_stm32h733xx.o
FDCAN2_IT1_IRQHandler                             build/startup_stm32h733xx.o
FDCAN3_IT0_IRQHandler                             build/startup_stm32h733xx.o
FDCAN3_IT1_IRQHandler                             build/startup_stm32h733xx.o
FDCAN_CAL_IRQHandler                              build/startup_stm32h733xx.o
FLASH_CRC_WaitForLastOperation                    build/stm32h7xx_hal_flash.o
                                                  build/stm32h7xx_hal_flash_ex.o
FLASH_Erase_Sector                                build/stm32h7xx_hal_flash_ex.o
                                                  build/stm32h7xx_hal_flash.o
FLASH_IRQHandler                                  build/startup_stm32h733xx.o
FLASH_OB_WaitForLastOperation                     build/stm32h7xx_hal_flash.o
                                                  build/stm32h7xx_hal_flash_ex.o
FLASH_WaitForLastOperation                        build/stm32h7xx_hal_flash.o
                                                  build/stm32h7xx_hal_flash_ex.o
FMAC_IRQHandler                                   build/startup_stm32h733xx.o
FMC_IRQHandler                                    build/startup_stm32h733xx.o
FPU_IRQHandler                                    build/startup_stm32h733xx.o
HAL_DBGMCU_DisableDBGSleepMode                    build/stm32h7xx_hal.o
HAL_DBGMCU_DisableDBGStandbyMode                  build/stm32h7xx_hal.o
HAL_DBGMCU_DisableDBGStopMode                     build/stm32h7xx_hal.o
HAL_DBGMCU_EnableDBGSleepMode                     build/stm32h7xx_hal.o
HAL_DBGMCU_EnableDBGStandbyMode                   build/stm32h7xx_hal.o
HAL_DBGMCU_EnableDBGStopMode                      build/stm32h7xx_hal.o
HAL_DMAEx_ChangeMemory                            build/stm32h7xx_hal_dma_ex.o
HAL_DMAEx_ConfigMuxRequestGenerator               build/stm32h7xx_hal_dma_ex.o
HAL_DMAEx_ConfigMuxSync                           build/stm32h7xx_hal_dma_ex.o
HAL_DMAEx_DisableMuxRequestGenerator              build/stm32h7xx_hal_dma_ex.o
HAL_DMAEx_EnableMuxRequestGenerator               build/stm32h7xx_hal_dma_ex.o
HAL_DMAEx_MUX_IRQHandler                          build/stm32h7xx_hal_dma_ex.o
HAL_DMAEx_MultiBufferStart                        build/stm32h7xx_hal_dma_ex.o
HAL_DMAEx_MultiBufferStart_IT                     build/stm32h7xx_hal_dma_ex.o
HAL_DMA_Abort                                     build/stm32h7xx_hal_dma.o
HAL_DMA_Abort_IT                                  build/stm32h7xx_hal_dma.o
                                                  build/stm32h7xx_hal_tim_ex.o
                                                  build/stm32h7xx_hal_tim.o
                                                  build/stm32h7xx_hal_i2c.o
HAL_DMA_DeInit                                    build/stm32h7xx_hal_dma.o
HAL_DMA_GetError                                  build/stm32h7xx_hal_dma.o
                                                  build/stm32h7xx_hal_i2c.o
HAL_DMA_GetState                                  build/stm32h7xx_hal_dma.o
                                                  build/stm32h7xx_hal_i2c.o
HAL_DMA_IRQHandler                                build/stm32h7xx_hal_dma.o
HAL_DMA_Init                                      build/stm32h7xx_hal_dma.o
HAL_DMA_PollForTransfer                           build/stm32h7xx_hal_dma.o
HAL_DMA_RegisterCallback                          build/stm32h7xx_hal_dma.o
HAL_DMA_Start                                     build/stm32h7xx_hal_dma.o
HAL_DMA_Start_IT                                  build/stm32h7xx_hal_dma.o
                                                  build/stm32h7xx_hal_tim_ex.o
                                                  build/stm32h7xx_hal_tim.o
                                                  build/stm32h7xx_hal_i2c.o
HAL_DMA_UnRegisterCallback                        build/stm32h7xx_hal_dma.o
HAL_DeInit                                        build/stm32h7xx_hal.o
HAL_Delay                                         build/stm32h7xx_hal.o
HAL_DisableCompensationCell                       build/stm32h7xx_hal.o
HAL_DisableDomain3DBGStandbyMode                  build/stm32h7xx_hal.o
HAL_DisableDomain3DBGStopMode                     build/stm32h7xx_hal.o
HAL_EXTI_ClearConfigLine                          build/stm32h7xx_hal_exti.o
HAL_EXTI_ClearPending                             build/stm32h7xx_hal_exti.o
HAL_EXTI_D1_ClearFlag                             build/stm32h7xx_hal.o
HAL_EXTI_D1_EventInputConfig                      build/stm32h7xx_hal.o
HAL_EXTI_D3_EventInputConfig                      build/stm32h7xx_hal.o
HAL_EXTI_EdgeConfig                               build/stm32h7xx_hal.o
HAL_EXTI_GenerateSWI                              build/stm32h7xx_hal_exti.o
HAL_EXTI_GenerateSWInterrupt                      build/stm32h7xx_hal.o
HAL_EXTI_GetConfigLine                            build/stm32h7xx_hal_exti.o
HAL_EXTI_GetHandle                                build/stm32h7xx_hal_exti.o
HAL_EXTI_GetPending                               build/stm32h7xx_hal_exti.o
HAL_EXTI_IRQHandler                               build/stm32h7xx_hal_exti.o
HAL_EXTI_RegisterCallback                         build/stm32h7xx_hal_exti.o
HAL_EXTI_SetConfigLine                            build/stm32h7xx_hal_exti.o
HAL_EnableCompensationCell                        build/stm32h7xx_hal.o
HAL_EnableDomain3DBGStandbyMode                   build/stm32h7xx_hal.o
HAL_EnableDomain3DBGStopMode                      build/stm32h7xx_hal.o
HAL_FLASHEx_ComputeCRC                            build/stm32h7xx_hal_flash_ex.o
HAL_FLASHEx_Erase                                 build/stm32h7xx_hal_flash_ex.o
HAL_FLASHEx_Erase_IT                              build/stm32h7xx_hal_flash_ex.o
HAL_FLASHEx_Lock_Bank1                            build/stm32h7xx_hal_flash_ex.o
HAL_FLASHEx_OBGetConfig                           build/stm32h7xx_hal_flash_ex.o
HAL_FLASHEx_OBProgram                             build/stm32h7xx_hal_flash_ex.o
HAL_FLASHEx_Unlock_Bank1                          build/stm32h7xx_hal_flash_ex.o
HAL_FLASH_EndOfOperationCallback                  build/stm32h7xx_hal_flash.o
HAL_FLASH_GetError                                build/stm32h7xx_hal_flash.o
HAL_FLASH_IRQHandler                              build/stm32h7xx_hal_flash.o
HAL_FLASH_Lock                                    build/stm32h7xx_hal_flash.o
HAL_FLASH_OB_Launch                               build/stm32h7xx_hal_flash.o
HAL_FLASH_OB_Lock                                 build/stm32h7xx_hal_flash.o
HAL_FLASH_OB_Unlock                               build/stm32h7xx_hal_flash.o
HAL_FLASH_OperationErrorCallback                  build/stm32h7xx_hal_flash.o
HAL_FLASH_Program                                 build/stm32h7xx_hal_flash.o
HAL_FLASH_Program_IT                              build/stm32h7xx_hal_flash.o
HAL_FLASH_Unlock                                  build/stm32h7xx_hal_flash.o
HAL_GPIO_DeInit                                   build/stm32h7xx_hal_gpio.o
HAL_GPIO_EXTI_Callback                            build/stm32h7xx_hal_gpio.o
HAL_GPIO_EXTI_IRQHandler                          build/stm32h7xx_hal_gpio.o
HAL_GPIO_Init                                     build/stm32h7xx_hal_gpio.o
                                                  build/main.o
                                                  build/stm32h7xx_hal_rcc.o
HAL_GPIO_LockPin                                  build/stm32h7xx_hal_gpio.o
HAL_GPIO_ReadPin                                  build/stm32h7xx_hal_gpio.o
HAL_GPIO_TogglePin                                build/stm32h7xx_hal_gpio.o
                                                  build/LED.o
HAL_GPIO_WritePin                                 build/stm32h7xx_hal_gpio.o
                                                  build/main.o
                                                  build/LED.o
HAL_GetCurrentCPUID                               build/stm32h7xx_hal_cortex.o
HAL_GetDEVID                                      build/stm32h7xx_hal.o
HAL_GetFMCMemorySwappingConfig                    build/stm32h7xx_hal.o
HAL_GetHalVersion                                 build/stm32h7xx_hal.o
HAL_GetREVID                                      build/stm32h7xx_hal.o
                                                  build/stm32h7xx_hal_rcc_ex.o
HAL_GetTick                                       build/stm32h7xx_hal.o
                                                  build/stm32h7xx_hal_tim_ex.o
                                                  build/stm32h7xx_hal_i2c.o
                                                  build/stm32h7xx_hal_pwr_ex.o
                                                  build/stm32h7xx_hal_mdma.o
                                                  build/stm32h7xx_hal_dma.o
                                                  build/stm32h7xx_hal_flash.o
                                                  build/stm32h7xx_hal_rcc_ex.o
                                                  build/stm32h7xx_hal_rcc.o
HAL_GetTickFreq                                   build/stm32h7xx_hal.o
HAL_GetTickPrio                                   build/stm32h7xx_hal.o
HAL_GetUIDw0                                      build/stm32h7xx_hal.o
HAL_GetUIDw1                                      build/stm32h7xx_hal.o
HAL_GetUIDw2                                      build/stm32h7xx_hal.o
HAL_HSEM_ActivateNotification                     build/stm32h7xx_hal_hsem.o
HAL_HSEM_DeactivateNotification                   build/stm32h7xx_hal_hsem.o
HAL_HSEM_FastTake                                 build/stm32h7xx_hal_hsem.o
HAL_HSEM_FreeCallback                             build/stm32h7xx_hal_hsem.o
HAL_HSEM_GetClearKey                              build/stm32h7xx_hal_hsem.o
HAL_HSEM_IRQHandler                               build/stm32h7xx_hal_hsem.o
HAL_HSEM_IsSemTaken                               build/stm32h7xx_hal_hsem.o
HAL_HSEM_Release                                  build/stm32h7xx_hal_hsem.o
HAL_HSEM_ReleaseAll                               build/stm32h7xx_hal_hsem.o
HAL_HSEM_SetClearKey                              build/stm32h7xx_hal_hsem.o
HAL_HSEM_Take                                     build/stm32h7xx_hal_hsem.o
HAL_I2CEx_ConfigAnalogFilter                      build/stm32h7xx_hal_i2c_ex.o
HAL_I2CEx_ConfigDigitalFilter                     build/stm32h7xx_hal_i2c_ex.o
HAL_I2CEx_DisableFastModePlus                     build/stm32h7xx_hal_i2c_ex.o
HAL_I2CEx_DisableWakeUp                           build/stm32h7xx_hal_i2c_ex.o
HAL_I2CEx_EnableFastModePlus                      build/stm32h7xx_hal_i2c_ex.o
HAL_I2CEx_EnableWakeUp                            build/stm32h7xx_hal_i2c_ex.o
HAL_I2C_AbortCpltCallback                         build/stm32h7xx_hal_i2c.o
HAL_I2C_AddrCallback                              build/stm32h7xx_hal_i2c.o
HAL_I2C_DeInit                                    build/stm32h7xx_hal_i2c.o
HAL_I2C_DisableListen_IT                          build/stm32h7xx_hal_i2c.o
HAL_I2C_ER_IRQHandler                             build/stm32h7xx_hal_i2c.o
HAL_I2C_EV_IRQHandler                             build/stm32h7xx_hal_i2c.o
HAL_I2C_EnableListen_IT                           build/stm32h7xx_hal_i2c.o
HAL_I2C_ErrorCallback                             build/stm32h7xx_hal_i2c.o
HAL_I2C_GetError                                  build/stm32h7xx_hal_i2c.o
HAL_I2C_GetMode                                   build/stm32h7xx_hal_i2c.o
HAL_I2C_GetState                                  build/stm32h7xx_hal_i2c.o
HAL_I2C_Init                                      build/stm32h7xx_hal_i2c.o
HAL_I2C_IsDeviceReady                             build/stm32h7xx_hal_i2c.o
HAL_I2C_ListenCpltCallback                        build/stm32h7xx_hal_i2c.o
HAL_I2C_MasterRxCpltCallback                      build/stm32h7xx_hal_i2c.o
HAL_I2C_MasterTxCpltCallback                      build/stm32h7xx_hal_i2c.o
HAL_I2C_Master_Abort_IT                           build/stm32h7xx_hal_i2c.o
HAL_I2C_Master_Receive                            build/stm32h7xx_hal_i2c.o
HAL_I2C_Master_Receive_DMA                        build/stm32h7xx_hal_i2c.o
HAL_I2C_Master_Receive_IT                         build/stm32h7xx_hal_i2c.o
HAL_I2C_Master_Seq_Receive_DMA                    build/stm32h7xx_hal_i2c.o
HAL_I2C_Master_Seq_Receive_IT                     build/stm32h7xx_hal_i2c.o
HAL_I2C_Master_Seq_Transmit_DMA                   build/stm32h7xx_hal_i2c.o
HAL_I2C_Master_Seq_Transmit_IT                    build/stm32h7xx_hal_i2c.o
HAL_I2C_Master_Transmit                           build/stm32h7xx_hal_i2c.o
HAL_I2C_Master_Transmit_DMA                       build/stm32h7xx_hal_i2c.o
HAL_I2C_Master_Transmit_IT                        build/stm32h7xx_hal_i2c.o
HAL_I2C_MemRxCpltCallback                         build/stm32h7xx_hal_i2c.o
HAL_I2C_MemTxCpltCallback                         build/stm32h7xx_hal_i2c.o
HAL_I2C_Mem_Read                                  build/stm32h7xx_hal_i2c.o
HAL_I2C_Mem_Read_DMA                              build/stm32h7xx_hal_i2c.o
HAL_I2C_Mem_Read_IT                               build/stm32h7xx_hal_i2c.o
HAL_I2C_Mem_Write                                 build/stm32h7xx_hal_i2c.o
HAL_I2C_Mem_Write_DMA                             build/stm32h7xx_hal_i2c.o
HAL_I2C_Mem_Write_IT                              build/stm32h7xx_hal_i2c.o
HAL_I2C_MspDeInit                                 build/stm32h7xx_hal_i2c.o
HAL_I2C_MspInit                                   build/stm32h7xx_hal_i2c.o
HAL_I2C_SlaveRxCpltCallback                       build/stm32h7xx_hal_i2c.o
HAL_I2C_SlaveTxCpltCallback                       build/stm32h7xx_hal_i2c.o
HAL_I2C_Slave_Receive                             build/stm32h7xx_hal_i2c.o
HAL_I2C_Slave_Receive_DMA                         build/stm32h7xx_hal_i2c.o
HAL_I2C_Slave_Receive_IT                          build/stm32h7xx_hal_i2c.o
HAL_I2C_Slave_Seq_Receive_DMA                     build/stm32h7xx_hal_i2c.o
HAL_I2C_Slave_Seq_Receive_IT                      build/stm32h7xx_hal_i2c.o
HAL_I2C_Slave_Seq_Transmit_DMA                    build/stm32h7xx_hal_i2c.o
HAL_I2C_Slave_Seq_Transmit_IT                     build/stm32h7xx_hal_i2c.o
HAL_I2C_Slave_Transmit                            build/stm32h7xx_hal_i2c.o
HAL_I2C_Slave_Transmit_DMA                        build/stm32h7xx_hal_i2c.o
HAL_I2C_Slave_Transmit_IT                         build/stm32h7xx_hal_i2c.o
HAL_IncTick                                       build/stm32h7xx_hal.o
                                                  build/main.o
HAL_Init                                          build/stm32h7xx_hal.o
                                                  build/main.o
HAL_InitTick                                      build/stm32h7xx_hal_timebase_tim.o
                                                  build/stm32h7xx_hal_rcc.o
HAL_MDMA_Abort                                    build/stm32h7xx_hal_mdma.o
HAL_MDMA_Abort_IT                                 build/stm32h7xx_hal_mdma.o
HAL_MDMA_ConfigPostRequestMask                    build/stm32h7xx_hal_mdma.o
HAL_MDMA_DeInit                                   build/stm32h7xx_hal_mdma.o
HAL_MDMA_GenerateSWRequest                        build/stm32h7xx_hal_mdma.o
HAL_MDMA_GetError                                 build/stm32h7xx_hal_mdma.o
HAL_MDMA_GetState                                 build/stm32h7xx_hal_mdma.o
HAL_MDMA_IRQHandler                               build/stm32h7xx_hal_mdma.o
HAL_MDMA_Init                                     build/stm32h7xx_hal_mdma.o
HAL_MDMA_LinkedList_AddNode                       build/stm32h7xx_hal_mdma.o
HAL_MDMA_LinkedList_CreateNode                    build/stm32h7xx_hal_mdma.o
HAL_MDMA_LinkedList_DisableCircularMode           build/stm32h7xx_hal_mdma.o
HAL_MDMA_LinkedList_EnableCircularMode            build/stm32h7xx_hal_mdma.o
HAL_MDMA_LinkedList_RemoveNode                    build/stm32h7xx_hal_mdma.o
HAL_MDMA_PollForTransfer                          build/stm32h7xx_hal_mdma.o
HAL_MDMA_RegisterCallback                         build/stm32h7xx_hal_mdma.o
HAL_MDMA_Start                                    build/stm32h7xx_hal_mdma.o
HAL_MDMA_Start_IT                                 build/stm32h7xx_hal_mdma.o
HAL_MDMA_UnRegisterCallback                       build/stm32h7xx_hal_mdma.o
HAL_MPU_ConfigRegion                              build/stm32h7xx_hal_cortex.o
HAL_MPU_Disable                                   build/stm32h7xx_hal_cortex.o
HAL_MPU_Enable                                    build/stm32h7xx_hal_cortex.o
HAL_MspDeInit                                     build/stm32h7xx_hal.o
HAL_MspInit                                       build/stm32h7xx_hal_msp.o
HAL_NVIC_ClearPendingIRQ                          build/stm32h7xx_hal_cortex.o
HAL_NVIC_DisableIRQ                               build/stm32h7xx_hal_cortex.o
HAL_NVIC_EnableIRQ                                build/stm32h7xx_hal_cortex.o
                                                  build/stm32h7xx_hal_timebase_tim.o
HAL_NVIC_GetActive                                build/stm32h7xx_hal_cortex.o
HAL_NVIC_GetPendingIRQ                            build/stm32h7xx_hal_cortex.o
HAL_NVIC_GetPriority                              build/stm32h7xx_hal_cortex.o
HAL_NVIC_GetPriorityGrouping                      build/stm32h7xx_hal_cortex.o
HAL_NVIC_SetPendingIRQ                            build/stm32h7xx_hal_cortex.o
HAL_NVIC_SetPriority                              build/stm32h7xx_hal_cortex.o
                                                  build/stm32h7xx_hal.o
                                                  build/stm32h7xx_hal_timebase_tim.o
                                                  build/stm32h7xx_hal_msp.o
HAL_NVIC_SetPriorityGrouping                      build/stm32h7xx_hal_cortex.o
                                                  build/stm32h7xx_hal.o
HAL_NVIC_SystemReset                              build/stm32h7xx_hal_cortex.o
HAL_PWREx_AVDCallback                             build/stm32h7xx_hal_pwr_ex.o
HAL_PWREx_ClearPendingEvent                       build/stm32h7xx_hal_pwr_ex.o
HAL_PWREx_ClearWakeupFlag                         build/stm32h7xx_hal_pwr_ex.o
HAL_PWREx_ConfigAVD                               build/stm32h7xx_hal_pwr_ex.o
HAL_PWREx_ConfigD3Domain                          build/stm32h7xx_hal_pwr_ex.o
HAL_PWREx_ConfigSupply                            build/stm32h7xx_hal_pwr_ex.o
                                                  build/main.o
HAL_PWREx_ControlStopModeVoltageScaling           build/stm32h7xx_hal_pwr_ex.o
HAL_PWREx_ControlVoltageScaling                   build/stm32h7xx_hal_pwr_ex.o
HAL_PWREx_DisableAVD                              build/stm32h7xx_hal_pwr_ex.o
HAL_PWREx_DisableBatteryCharging                  build/stm32h7xx_hal_pwr_ex.o
HAL_PWREx_DisableBkUpReg                          build/stm32h7xx_hal_pwr_ex.o
HAL_PWREx_DisableFlashPowerDown                   build/stm32h7xx_hal_pwr_ex.o
HAL_PWREx_DisableMonitoring                       build/stm32h7xx_hal_pwr_ex.o
HAL_PWREx_DisableUSBReg                           build/stm32h7xx_hal_pwr_ex.o
HAL_PWREx_DisableUSBVoltageDetector               build/stm32h7xx_hal_pwr_ex.o
HAL_PWREx_DisableWakeUpPin                        build/stm32h7xx_hal_pwr_ex.o
HAL_PWREx_EnableAVD                               build/stm32h7xx_hal_pwr_ex.o
HAL_PWREx_EnableBatteryCharging                   build/stm32h7xx_hal_pwr_ex.o
HAL_PWREx_EnableBkUpReg                           build/stm32h7xx_hal_pwr_ex.o
HAL_PWREx_EnableFlashPowerDown                    build/stm32h7xx_hal_pwr_ex.o
HAL_PWREx_EnableMonitoring                        build/stm32h7xx_hal_pwr_ex.o
HAL_PWREx_EnableUSBReg                            build/stm32h7xx_hal_pwr_ex.o
HAL_PWREx_EnableUSBVoltageDetector                build/stm32h7xx_hal_pwr_ex.o
HAL_PWREx_EnableWakeUpPin                         build/stm32h7xx_hal_pwr_ex.o
HAL_PWREx_EnterSTANDBYMode                        build/stm32h7xx_hal_pwr_ex.o
HAL_PWREx_EnterSTOPMode                           build/stm32h7xx_hal_pwr_ex.o
HAL_PWREx_GetStopModeVoltageRange                 build/stm32h7xx_hal_pwr_ex.o
HAL_PWREx_GetSupplyConfig                         build/stm32h7xx_hal_pwr_ex.o
HAL_PWREx_GetTemperatureLevel                     build/stm32h7xx_hal_pwr_ex.o
HAL_PWREx_GetVBATLevel                            build/stm32h7xx_hal_pwr_ex.o
HAL_PWREx_GetVoltageRange                         build/stm32h7xx_hal_pwr_ex.o
HAL_PWREx_GetWakeupFlag                           build/stm32h7xx_hal_pwr_ex.o
HAL_PWREx_PVD_AVD_IRQHandler                      build/stm32h7xx_hal_pwr_ex.o
HAL_PWREx_WAKEUP_PIN_IRQHandler                   build/stm32h7xx_hal_pwr_ex.o
HAL_PWREx_WKUP1_Callback                          build/stm32h7xx_hal_pwr_ex.o
HAL_PWREx_WKUP2_Callback                          build/stm32h7xx_hal_pwr_ex.o
HAL_PWREx_WKUP4_Callback                          build/stm32h7xx_hal_pwr_ex.o
HAL_PWREx_WKUP6_Callback                          build/stm32h7xx_hal_pwr_ex.o
HAL_PWR_ConfigPVD                                 build/stm32h7xx_hal_pwr.o
HAL_PWR_DeInit                                    build/stm32h7xx_hal_pwr.o
HAL_PWR_DisableBkUpAccess                         build/stm32h7xx_hal_pwr.o
HAL_PWR_DisablePVD                                build/stm32h7xx_hal_pwr.o
HAL_PWR_DisableSEVOnPend                          build/stm32h7xx_hal_pwr.o
HAL_PWR_DisableSleepOnExit                        build/stm32h7xx_hal_pwr.o
HAL_PWR_DisableWakeUpPin                          build/stm32h7xx_hal_pwr.o
HAL_PWR_EnableBkUpAccess                          build/stm32h7xx_hal_pwr.o
HAL_PWR_EnablePVD                                 build/stm32h7xx_hal_pwr.o
HAL_PWR_EnableSEVOnPend                           build/stm32h7xx_hal_pwr.o
HAL_PWR_EnableSleepOnExit                         build/stm32h7xx_hal_pwr.o
HAL_PWR_EnableWakeUpPin                           build/stm32h7xx_hal_pwr.o
HAL_PWR_EnterSLEEPMode                            build/stm32h7xx_hal_pwr.o
HAL_PWR_EnterSTANDBYMode                          build/stm32h7xx_hal_pwr.o
HAL_PWR_EnterSTOPMode                             build/stm32h7xx_hal_pwr.o
HAL_PWR_PVDCallback                               build/stm32h7xx_hal_pwr.o
                                                  build/stm32h7xx_hal_pwr_ex.o
HAL_PWR_PVD_IRQHandler                            build/stm32h7xx_hal_pwr.o
HAL_RCCEx_CRSConfig                               build/stm32h7xx_hal_rcc_ex.o
HAL_RCCEx_CRSGetSynchronizationInfo               build/stm32h7xx_hal_rcc_ex.o
HAL_RCCEx_CRSSoftwareSynchronizationGenerate      build/stm32h7xx_hal_rcc_ex.o
HAL_RCCEx_CRSWaitSynchronization                  build/stm32h7xx_hal_rcc_ex.o
HAL_RCCEx_CRS_ErrorCallback                       build/stm32h7xx_hal_rcc_ex.o
HAL_RCCEx_CRS_ExpectedSyncCallback                build/stm32h7xx_hal_rcc_ex.o
HAL_RCCEx_CRS_IRQHandler                          build/stm32h7xx_hal_rcc_ex.o
HAL_RCCEx_CRS_SyncOkCallback                      build/stm32h7xx_hal_rcc_ex.o
HAL_RCCEx_CRS_SyncWarnCallback                    build/stm32h7xx_hal_rcc_ex.o
HAL_RCCEx_DisableLSECSS                           build/stm32h7xx_hal_rcc_ex.o
HAL_RCCEx_EnableLSECSS                            build/stm32h7xx_hal_rcc_ex.o
HAL_RCCEx_EnableLSECSS_IT                         build/stm32h7xx_hal_rcc_ex.o
HAL_RCCEx_GetD1PCLK1Freq                          build/stm32h7xx_hal_rcc_ex.o
HAL_RCCEx_GetD1SysClockFreq                       build/stm32h7xx_hal_rcc_ex.o
HAL_RCCEx_GetD3PCLK1Freq                          build/stm32h7xx_hal_rcc_ex.o
HAL_RCCEx_GetPLL1ClockFreq                        build/stm32h7xx_hal_rcc_ex.o
HAL_RCCEx_GetPLL2ClockFreq                        build/stm32h7xx_hal_rcc_ex.o
HAL_RCCEx_GetPLL3ClockFreq                        build/stm32h7xx_hal_rcc_ex.o
HAL_RCCEx_GetPeriphCLKConfig                      build/stm32h7xx_hal_rcc_ex.o
HAL_RCCEx_GetPeriphCLKFreq                        build/stm32h7xx_hal_rcc_ex.o
HAL_RCCEx_KerWakeUpStopCLKConfig                  build/stm32h7xx_hal_rcc_ex.o
HAL_RCCEx_LSECSS_Callback                         build/stm32h7xx_hal_rcc_ex.o
HAL_RCCEx_LSECSS_IRQHandler                       build/stm32h7xx_hal_rcc_ex.o
HAL_RCCEx_PeriphCLKConfig                         build/stm32h7xx_hal_rcc_ex.o
HAL_RCCEx_WWDGxSysResetConfig                     build/stm32h7xx_hal_rcc_ex.o
HAL_RCCEx_WakeUpStopCLKConfig                     build/stm32h7xx_hal_rcc_ex.o
HAL_RCC_CSSCallback                               build/stm32h7xx_hal_rcc.o
HAL_RCC_ClockConfig                               build/stm32h7xx_hal_rcc.o
                                                  build/main.o
HAL_RCC_DeInit                                    build/stm32h7xx_hal_rcc.o
HAL_RCC_DisableCSS                                build/stm32h7xx_hal_rcc.o
HAL_RCC_EnableCSS                                 build/stm32h7xx_hal_rcc.o
HAL_RCC_GetClockConfig                            build/stm32h7xx_hal_rcc.o
                                                  build/stm32h7xx_hal_timebase_tim.o
HAL_RCC_GetHCLKFreq                               build/stm32h7xx_hal_rcc.o
                                                  build/stm32h7xx_hal_rcc_ex.o
HAL_RCC_GetOscConfig                              build/stm32h7xx_hal_rcc.o
HAL_RCC_GetPCLK1Freq                              build/stm32h7xx_hal_rcc.o
                                                  build/stm32h7xx_hal_rcc_ex.o
HAL_RCC_GetPCLK2Freq                              build/stm32h7xx_hal_rcc.o
                                                  build/stm32h7xx_hal_timebase_tim.o
HAL_RCC_GetSysClockFreq                           build/stm32h7xx_hal_rcc.o
                                                  build/stm32h7xx_hal.o
                                                  build/stm32h7xx_hal_rcc_ex.o
HAL_RCC_MCOConfig                                 build/stm32h7xx_hal_rcc.o
HAL_RCC_NMI_IRQHandler                            build/stm32h7xx_hal_rcc.o
HAL_RCC_OscConfig                                 build/stm32h7xx_hal_rcc.o
                                                  build/main.o
HAL_ResumeTick                                    build/stm32h7xx_hal_timebase_tim.o
HAL_SYSCFG_ADC2ALT_Rout0Config                    build/stm32h7xx_hal.o
HAL_SYSCFG_ADC2ALT_Rout1Config                    build/stm32h7xx_hal.o
HAL_SYSCFG_AnalogSwitchConfig                     build/stm32h7xx_hal.o
HAL_SYSCFG_CM7BootAddConfig                       build/stm32h7xx_hal.o
HAL_SYSCFG_CompensationCodeConfig                 build/stm32h7xx_hal.o
HAL_SYSCFG_CompensationCodeSelect                 build/stm32h7xx_hal.o
HAL_SYSCFG_DisableBOOST                           build/stm32h7xx_hal.o
HAL_SYSCFG_DisableIOSpeedOptimize                 build/stm32h7xx_hal.o
HAL_SYSCFG_DisableVREFBUF                         build/stm32h7xx_hal.o
HAL_SYSCFG_ETHInterfaceSelect                     build/stm32h7xx_hal.o
HAL_SYSCFG_EnableBOOST                            build/stm32h7xx_hal.o
HAL_SYSCFG_EnableIOSpeedOptimize                  build/stm32h7xx_hal.o
HAL_SYSCFG_EnableVREFBUF                          build/stm32h7xx_hal.o
HAL_SYSCFG_VREFBUF_HighImpedanceConfig            build/stm32h7xx_hal.o
HAL_SYSCFG_VREFBUF_TrimmingConfig                 build/stm32h7xx_hal.o
HAL_SYSCFG_VREFBUF_VoltageScalingConfig           build/stm32h7xx_hal.o
HAL_SYSTICK_CLKSourceConfig                       build/stm32h7xx_hal_cortex.o
HAL_SYSTICK_Callback                              build/stm32h7xx_hal_cortex.o
HAL_SYSTICK_Config                                build/stm32h7xx_hal_cortex.o
                                                  build/stm32h7xx_hal.o
HAL_SYSTICK_IRQHandler                            build/stm32h7xx_hal_cortex.o
HAL_SetFMCMemorySwappingConfig                    build/stm32h7xx_hal.o
HAL_SetTickFreq                                   build/stm32h7xx_hal.o
HAL_SuspendTick                                   build/stm32h7xx_hal_timebase_tim.o
HAL_TIMEx_Break2Callback                          build/stm32h7xx_hal_tim_ex.o
                                                  build/stm32h7xx_hal_tim.o
HAL_TIMEx_BreakCallback                           build/stm32h7xx_hal_tim_ex.o
                                                  build/stm32h7xx_hal_tim.o
HAL_TIMEx_CommutCallback                          build/stm32h7xx_hal_tim_ex.o
                                                  build/stm32h7xx_hal_tim.o
HAL_TIMEx_CommutHalfCpltCallback                  build/stm32h7xx_hal_tim_ex.o
HAL_TIMEx_ConfigBreakDeadTime                     build/stm32h7xx_hal_tim_ex.o
HAL_TIMEx_ConfigBreakInput                        build/stm32h7xx_hal_tim_ex.o
HAL_TIMEx_ConfigCommutEvent                       build/stm32h7xx_hal_tim_ex.o
HAL_TIMEx_ConfigCommutEvent_DMA                   build/stm32h7xx_hal_tim_ex.o
HAL_TIMEx_ConfigCommutEvent_IT                    build/stm32h7xx_hal_tim_ex.o
HAL_TIMEx_DisarmBreakInput                        build/stm32h7xx_hal_tim_ex.o
HAL_TIMEx_GetChannelNState                        build/stm32h7xx_hal_tim_ex.o
HAL_TIMEx_GroupChannel5                           build/stm32h7xx_hal_tim_ex.o
HAL_TIMEx_HallSensor_DeInit                       build/stm32h7xx_hal_tim_ex.o
HAL_TIMEx_HallSensor_GetState                     build/stm32h7xx_hal_tim_ex.o
HAL_TIMEx_HallSensor_Init                         build/stm32h7xx_hal_tim_ex.o
HAL_TIMEx_HallSensor_MspDeInit                    build/stm32h7xx_hal_tim_ex.o
HAL_TIMEx_HallSensor_MspInit                      build/stm32h7xx_hal_tim_ex.o
HAL_TIMEx_HallSensor_Start                        build/stm32h7xx_hal_tim_ex.o
HAL_TIMEx_HallSensor_Start_DMA                    build/stm32h7xx_hal_tim_ex.o
HAL_TIMEx_HallSensor_Start_IT                     build/stm32h7xx_hal_tim_ex.o
HAL_TIMEx_HallSensor_Stop                         build/stm32h7xx_hal_tim_ex.o
HAL_TIMEx_HallSensor_Stop_DMA                     build/stm32h7xx_hal_tim_ex.o
HAL_TIMEx_HallSensor_Stop_IT                      build/stm32h7xx_hal_tim_ex.o
HAL_TIMEx_MasterConfigSynchronization             build/stm32h7xx_hal_tim_ex.o
HAL_TIMEx_OCN_Start                               build/stm32h7xx_hal_tim_ex.o
HAL_TIMEx_OCN_Start_DMA                           build/stm32h7xx_hal_tim_ex.o
HAL_TIMEx_OCN_Start_IT                            build/stm32h7xx_hal_tim_ex.o
HAL_TIMEx_OCN_Stop                                build/stm32h7xx_hal_tim_ex.o
HAL_TIMEx_OCN_Stop_DMA                            build/stm32h7xx_hal_tim_ex.o
HAL_TIMEx_OCN_Stop_IT                             build/stm32h7xx_hal_tim_ex.o
HAL_TIMEx_OnePulseN_Start                         build/stm32h7xx_hal_tim_ex.o
HAL_TIMEx_OnePulseN_Start_IT                      build/stm32h7xx_hal_tim_ex.o
HAL_TIMEx_OnePulseN_Stop                          build/stm32h7xx_hal_tim_ex.o
HAL_TIMEx_OnePulseN_Stop_IT                       build/stm32h7xx_hal_tim_ex.o
HAL_TIMEx_PWMN_Start                              build/stm32h7xx_hal_tim_ex.o
HAL_TIMEx_PWMN_Start_DMA                          build/stm32h7xx_hal_tim_ex.o
HAL_TIMEx_PWMN_Start_IT                           build/stm32h7xx_hal_tim_ex.o
HAL_TIMEx_PWMN_Stop                               build/stm32h7xx_hal_tim_ex.o
HAL_TIMEx_PWMN_Stop_DMA                           build/stm32h7xx_hal_tim_ex.o
HAL_TIMEx_PWMN_Stop_IT                            build/stm32h7xx_hal_tim_ex.o
HAL_TIMEx_ReArmBreakInput                         build/stm32h7xx_hal_tim_ex.o
HAL_TIMEx_RemapConfig                             build/stm32h7xx_hal_tim_ex.o
HAL_TIMEx_TISelection                             build/stm32h7xx_hal_tim_ex.o
HAL_TIM_Base_DeInit                               build/stm32h7xx_hal_tim.o
HAL_TIM_Base_GetState                             build/stm32h7xx_hal_tim.o
HAL_TIM_Base_Init                                 build/stm32h7xx_hal_tim.o
                                                  build/stm32h7xx_hal_timebase_tim.o
HAL_TIM_Base_MspDeInit                            build/stm32h7xx_hal_tim.o
HAL_TIM_Base_MspInit                              build/stm32h7xx_hal_tim.o
HAL_TIM_Base_Start                                build/stm32h7xx_hal_tim.o
HAL_TIM_Base_Start_DMA                            build/stm32h7xx_hal_tim.o
HAL_TIM_Base_Start_IT                             build/stm32h7xx_hal_tim.o
                                                  build/stm32h7xx_hal_timebase_tim.o
HAL_TIM_Base_Stop                                 build/stm32h7xx_hal_tim.o
HAL_TIM_Base_Stop_DMA                             build/stm32h7xx_hal_tim.o
HAL_TIM_Base_Stop_IT                              build/stm32h7xx_hal_tim.o
HAL_TIM_ConfigClockSource                         build/stm32h7xx_hal_tim.o
HAL_TIM_ConfigOCrefClear                          build/stm32h7xx_hal_tim.o
HAL_TIM_ConfigTI1Input                            build/stm32h7xx_hal_tim.o
HAL_TIM_DMABurstState                             build/stm32h7xx_hal_tim.o
HAL_TIM_DMABurst_MultiReadStart                   build/stm32h7xx_hal_tim.o
HAL_TIM_DMABurst_MultiWriteStart                  build/stm32h7xx_hal_tim.o
HAL_TIM_DMABurst_ReadStart                        build/stm32h7xx_hal_tim.o
HAL_TIM_DMABurst_ReadStop                         build/stm32h7xx_hal_tim.o
HAL_TIM_DMABurst_WriteStart                       build/stm32h7xx_hal_tim.o
HAL_TIM_DMABurst_WriteStop                        build/stm32h7xx_hal_tim.o
HAL_TIM_Encoder_DeInit                            build/stm32h7xx_hal_tim.o
HAL_TIM_Encoder_GetState                          build/stm32h7xx_hal_tim.o
HAL_TIM_Encoder_Init                              build/stm32h7xx_hal_tim.o
HAL_TIM_Encoder_MspDeInit                         build/stm32h7xx_hal_tim.o
HAL_TIM_Encoder_MspInit                           build/stm32h7xx_hal_tim.o
HAL_TIM_Encoder_Start                             build/stm32h7xx_hal_tim.o
HAL_TIM_Encoder_Start_DMA                         build/stm32h7xx_hal_tim.o
HAL_TIM_Encoder_Start_IT                          build/stm32h7xx_hal_tim.o
HAL_TIM_Encoder_Stop                              build/stm32h7xx_hal_tim.o
HAL_TIM_Encoder_Stop_DMA                          build/stm32h7xx_hal_tim.o
HAL_TIM_Encoder_Stop_IT                           build/stm32h7xx_hal_tim.o
HAL_TIM_ErrorCallback                             build/stm32h7xx_hal_tim.o
                                                  build/stm32h7xx_hal_tim_ex.o
HAL_TIM_GenerateEvent                             build/stm32h7xx_hal_tim.o
HAL_TIM_GetActiveChannel                          build/stm32h7xx_hal_tim.o
HAL_TIM_GetChannelState                           build/stm32h7xx_hal_tim.o
HAL_TIM_IC_CaptureCallback                        build/stm32h7xx_hal_tim.o
HAL_TIM_IC_CaptureHalfCpltCallback                build/stm32h7xx_hal_tim.o
HAL_TIM_IC_ConfigChannel                          build/stm32h7xx_hal_tim.o
HAL_TIM_IC_DeInit                                 build/stm32h7xx_hal_tim.o
HAL_TIM_IC_GetState                               build/stm32h7xx_hal_tim.o
HAL_TIM_IC_Init                                   build/stm32h7xx_hal_tim.o
HAL_TIM_IC_MspDeInit                              build/stm32h7xx_hal_tim.o
HAL_TIM_IC_MspInit                                build/stm32h7xx_hal_tim.o
HAL_TIM_IC_Start                                  build/stm32h7xx_hal_tim.o
HAL_TIM_IC_Start_DMA                              build/stm32h7xx_hal_tim.o
HAL_TIM_IC_Start_IT                               build/stm32h7xx_hal_tim.o
HAL_TIM_IC_Stop                                   build/stm32h7xx_hal_tim.o
HAL_TIM_IC_Stop_DMA                               build/stm32h7xx_hal_tim.o
HAL_TIM_IC_Stop_IT                                build/stm32h7xx_hal_tim.o
HAL_TIM_IRQHandler                                build/stm32h7xx_hal_tim.o
                                                  build/stm32h7xx_it.o
HAL_TIM_OC_ConfigChannel                          build/stm32h7xx_hal_tim.o
HAL_TIM_OC_DeInit                                 build/stm32h7xx_hal_tim.o
HAL_TIM_OC_DelayElapsedCallback                   build/stm32h7xx_hal_tim.o
HAL_TIM_OC_GetState                               build/stm32h7xx_hal_tim.o
HAL_TIM_OC_Init                                   build/stm32h7xx_hal_tim.o
HAL_TIM_OC_MspDeInit                              build/stm32h7xx_hal_tim.o
HAL_TIM_OC_MspInit                                build/stm32h7xx_hal_tim.o
HAL_TIM_OC_Start                                  build/stm32h7xx_hal_tim.o
HAL_TIM_OC_Start_DMA                              build/stm32h7xx_hal_tim.o
HAL_TIM_OC_Start_IT                               build/stm32h7xx_hal_tim.o
HAL_TIM_OC_Stop                                   build/stm32h7xx_hal_tim.o
HAL_TIM_OC_Stop_DMA                               build/stm32h7xx_hal_tim.o
HAL_TIM_OC_Stop_IT                                build/stm32h7xx_hal_tim.o
HAL_TIM_OnePulse_ConfigChannel                    build/stm32h7xx_hal_tim.o
HAL_TIM_OnePulse_DeInit                           build/stm32h7xx_hal_tim.o
HAL_TIM_OnePulse_GetState                         build/stm32h7xx_hal_tim.o
HAL_TIM_OnePulse_Init                             build/stm32h7xx_hal_tim.o
HAL_TIM_OnePulse_MspDeInit                        build/stm32h7xx_hal_tim.o
HAL_TIM_OnePulse_MspInit                          build/stm32h7xx_hal_tim.o
HAL_TIM_OnePulse_Start                            build/stm32h7xx_hal_tim.o
HAL_TIM_OnePulse_Start_IT                         build/stm32h7xx_hal_tim.o
HAL_TIM_OnePulse_Stop                             build/stm32h7xx_hal_tim.o
HAL_TIM_OnePulse_Stop_IT                          build/stm32h7xx_hal_tim.o
HAL_TIM_PWM_ConfigChannel                         build/stm32h7xx_hal_tim.o
HAL_TIM_PWM_DeInit                                build/stm32h7xx_hal_tim.o
HAL_TIM_PWM_GetState                              build/stm32h7xx_hal_tim.o
HAL_TIM_PWM_Init                                  build/stm32h7xx_hal_tim.o
HAL_TIM_PWM_MspDeInit                             build/stm32h7xx_hal_tim.o
HAL_TIM_PWM_MspInit                               build/stm32h7xx_hal_tim.o
HAL_TIM_PWM_PulseFinishedCallback                 build/stm32h7xx_hal_tim.o
                                                  build/stm32h7xx_hal_tim_ex.o
HAL_TIM_PWM_PulseFinishedHalfCpltCallback         build/stm32h7xx_hal_tim.o
HAL_TIM_PWM_Start                                 build/stm32h7xx_hal_tim.o
HAL_TIM_PWM_Start_DMA                             build/stm32h7xx_hal_tim.o
HAL_TIM_PWM_Start_IT                              build/stm32h7xx_hal_tim.o
HAL_TIM_PWM_Stop                                  build/stm32h7xx_hal_tim.o
HAL_TIM_PWM_Stop_DMA                              build/stm32h7xx_hal_tim.o
HAL_TIM_PWM_Stop_IT                               build/stm32h7xx_hal_tim.o
HAL_TIM_PeriodElapsedCallback                     build/main.o
                                                  build/stm32h7xx_hal_tim.o
HAL_TIM_PeriodElapsedHalfCpltCallback             build/stm32h7xx_hal_tim.o
HAL_TIM_ReadCapturedValue                         build/stm32h7xx_hal_tim.o
HAL_TIM_SlaveConfigSynchro                        build/stm32h7xx_hal_tim.o
HAL_TIM_SlaveConfigSynchro_IT                     build/stm32h7xx_hal_tim.o
HAL_TIM_TriggerCallback                           build/stm32h7xx_hal_tim.o
HAL_TIM_TriggerHalfCpltCallback                   build/stm32h7xx_hal_tim.o
HASH_RNG_IRQHandler                               build/startup_stm32h733xx.o
HSEM1_IRQHandler                                  build/startup_stm32h733xx.o
HardFault_Handler                                 build/stm32h7xx_it.o
I2C1_ER_IRQHandler                                build/startup_stm32h733xx.o
I2C1_EV_IRQHandler                                build/startup_stm32h733xx.o
I2C2_ER_IRQHandler                                build/startup_stm32h733xx.o
I2C2_EV_IRQHandler                                build/startup_stm32h733xx.o
I2C3_ER_IRQHandler                                build/startup_stm32h733xx.o
I2C3_EV_IRQHandler                                build/startup_stm32h733xx.o
I2C4_ER_IRQHandler                                build/startup_stm32h733xx.o
I2C4_EV_IRQHandler                                build/startup_stm32h733xx.o
I2C5_ER_IRQHandler                                build/startup_stm32h733xx.o
I2C5_EV_IRQHandler                                build/startup_stm32h733xx.o
LPTIM1_IRQHandler                                 build/startup_stm32h733xx.o
LPTIM2_IRQHandler                                 build/startup_stm32h733xx.o
LPTIM3_IRQHandler                                 build/startup_stm32h733xx.o
LPTIM4_IRQHandler                                 build/startup_stm32h733xx.o
LPTIM5_IRQHandler                                 build/startup_stm32h733xx.o
LPUART1_IRQHandler                                build/startup_stm32h733xx.o
LTDC_ER_IRQHandler                                build/startup_stm32h733xx.o
LTDC_IRQHandler                                   build/startup_stm32h733xx.o
MDIOS_IRQHandler                                  build/startup_stm32h733xx.o
MDIOS_WKUP_IRQHandler                             build/startup_stm32h733xx.o
MDMA_IRQHandler                                   build/startup_stm32h733xx.o
MemManage_Handler                                 build/stm32h7xx_it.o
NMI_Handler                                       build/stm32h7xx_it.o
OCTOSPI1_IRQHandler                               build/startup_stm32h733xx.o
OCTOSPI2_IRQHandler                               build/startup_stm32h733xx.o
OTFDEC1_IRQHandler                                build/startup_stm32h733xx.o
OTFDEC2_IRQHandler                                build/startup_stm32h733xx.o
OTG_HS_EP1_IN_IRQHandler                          build/startup_stm32h733xx.o
OTG_HS_EP1_OUT_IRQHandler                         build/startup_stm32h733xx.o
OTG_HS_IRQHandler                                 build/startup_stm32h733xx.o
OTG_HS_WKUP_IRQHandler                            build/startup_stm32h733xx.o
PVD_AVD_IRQHandler                                build/startup_stm32h733xx.o
PendSV_Handler                                    build/port.o
RCC_IRQHandler                                    build/startup_stm32h733xx.o
RTC_Alarm_IRQHandler                              build/startup_stm32h733xx.o
RTC_WKUP_IRQHandler                               build/startup_stm32h733xx.o
Reset_Handler                                     build/startup_stm32h733xx.o
SAI1_IRQHandler                                   build/startup_stm32h733xx.o
SAI4_IRQHandler                                   build/startup_stm32h733xx.o
SDMMC1_IRQHandler                                 build/startup_stm32h733xx.o
SDMMC2_IRQHandler                                 build/startup_stm32h733xx.o
SPDIF_RX_IRQHandler                               build/startup_stm32h733xx.o
SPI1_IRQHandler                                   build/startup_stm32h733xx.o
SPI2_IRQHandler                                   build/startup_stm32h733xx.o
SPI3_IRQHandler                                   build/startup_stm32h733xx.o
SPI4_IRQHandler                                   build/startup_stm32h733xx.o
SPI5_IRQHandler                                   build/startup_stm32h733xx.o
SPI6_IRQHandler                                   build/startup_stm32h733xx.o
STM32LED::LED2                                    build/LED.o
                                                  build/main.o
STM32LED::LED3                                    build/LED.o
                                                  build/main.o
STM32LED::LED::LED(GPIO_TypeDef*, unsigned short) build/LED.o
                                                  build/main.o
STM32LED::LED::LED(GPIO_TypeDef*, unsigned short) build/LED.o
STM32LED::LED::set(STM32LED::state)               build/LED.o
STM32LED::LED::toggle()                           build/LED.o
                                                  build/main.o
SVC_Handler                                       build/port.o
SWPMI1_IRQHandler                                 build/startup_stm32h733xx.o
StartDefaultTask(void*)                           build/main.o
SysTick_Handler                                   build/cmsis_os2.o
SystemClock_Config()                              build/main.o
SystemCoreClock                                   build/system_stm32h7xx.o
                                                  build/port.o
                                                  build/cmsis_os2.o
                                                  build/stm32h7xx_hal.o
                                                  build/stm32h7xx_hal_mdma.o
                                                  build/stm32h7xx_hal_dma.o
                                                  build/stm32h7xx_hal_rcc_ex.o
                                                  build/stm32h7xx_hal_rcc.o
SystemCoreClockUpdate                             build/system_stm32h7xx.o
SystemD2Clock                                     build/system_stm32h7xx.o
                                                  build/stm32h7xx_hal.o
                                                  build/stm32h7xx_hal_rcc_ex.o
                                                  build/stm32h7xx_hal_rcc.o
SystemInit                                        build/system_stm32h7xx.o
                                                  build/startup_stm32h733xx.o
TAMP_STAMP_IRQHandler                             build/startup_stm32h733xx.o
TIM15_IRQHandler                                  build/startup_stm32h733xx.o
TIM16_IRQHandler                                  build/startup_stm32h733xx.o
TIM17_IRQHandler                                  build/startup_stm32h733xx.o
TIM1_BRK_IRQHandler                               build/startup_stm32h733xx.o
TIM1_CC_IRQHandler                                build/startup_stm32h733xx.o
TIM1_TRG_COM_IRQHandler                           build/startup_stm32h733xx.o
TIM1_UP_IRQHandler                                build/stm32h7xx_it.o
TIM23_IRQHandler                                  build/startup_stm32h733xx.o
TIM24_IRQHandler                                  build/startup_stm32h733xx.o
TIM2_IRQHandler                                   build/startup_stm32h733xx.o
TIM3_IRQHandler                                   build/startup_stm32h733xx.o
TIM4_IRQHandler                                   build/startup_stm32h733xx.o
TIM5_IRQHandler                                   build/startup_stm32h733xx.o
TIM6_DAC_IRQHandler                               build/startup_stm32h733xx.o
TIM7_IRQHandler                                   build/startup_stm32h733xx.o
TIM8_BRK_TIM12_IRQHandler                         build/startup_stm32h733xx.o
TIM8_CC_IRQHandler                                build/startup_stm32h733xx.o
TIM8_TRG_COM_TIM14_IRQHandler                     build/startup_stm32h733xx.o
TIM8_UP_TIM13_IRQHandler                          build/startup_stm32h733xx.o
TIMEx_DMACommutationCplt                          build/stm32h7xx_hal_tim_ex.o
                                                  build/stm32h7xx_hal_tim.o
TIMEx_DMACommutationHalfCplt                      build/stm32h7xx_hal_tim_ex.o
                                                  build/stm32h7xx_hal_tim.o
TIM_Base_SetConfig                                build/stm32h7xx_hal_tim.o
                                                  build/stm32h7xx_hal_tim_ex.o
TIM_CCxChannelCmd                                 build/stm32h7xx_hal_tim.o
                                                  build/stm32h7xx_hal_tim_ex.o
TIM_DMACaptureCplt                                build/stm32h7xx_hal_tim.o
                                                  build/stm32h7xx_hal_tim_ex.o
TIM_DMACaptureHalfCplt                            build/stm32h7xx_hal_tim.o
                                                  build/stm32h7xx_hal_tim_ex.o
TIM_DMADelayPulseHalfCplt                         build/stm32h7xx_hal_tim.o
                                                  build/stm32h7xx_hal_tim_ex.o
TIM_DMAError                                      build/stm32h7xx_hal_tim.o
                                                  build/stm32h7xx_hal_tim_ex.o
TIM_ETR_SetConfig                                 build/stm32h7xx_hal_tim.o
TIM_OC2_SetConfig                                 build/stm32h7xx_hal_tim.o
                                                  build/stm32h7xx_hal_tim_ex.o
TIM_TI1_SetConfig                                 build/stm32h7xx_hal_tim.o
                                                  build/stm32h7xx_hal_tim_ex.o
UART4_IRQHandler                                  build/startup_stm32h733xx.o
UART5_IRQHandler                                  build/startup_stm32h733xx.o
UART7_IRQHandler                                  build/startup_stm32h733xx.o
UART8_IRQHandler                                  build/startup_stm32h733xx.o
UART9_IRQHandler                                  build/startup_stm32h733xx.o
USART10_IRQHandler                                build/startup_stm32h733xx.o
USART1_IRQHandler                                 build/startup_stm32h733xx.o
USART2_IRQHandler                                 build/startup_stm32h733xx.o
USART3_IRQHandler                                 build/startup_stm32h733xx.o
USART6_IRQHandler                                 build/startup_stm32h733xx.o
UsageFault_Handler                                build/stm32h7xx_it.o
WAKEUP_PIN_IRQHandler                             build/startup_stm32h733xx.o
WWDG_IRQHandler                                   build/startup_stm32h733xx.o
_ITM_deregisterTMCloneTable                       /usr/lib/gcc/arm-none-eabi/10.3.1/thumb/v7e-m+dp/hard/crtbegin.o
_ITM_registerTMCloneTable                         /usr/lib/gcc/arm-none-eabi/10.3.1/thumb/v7e-m+dp/hard/crtbegin.o
_Unwind_Backtrace                                 /usr/lib/gcc/arm-none-eabi/10.3.1/thumb/v7e-m+dp/hard/libgcc.a(libunwind.o)
_Unwind_Complete                                  /usr/lib/gcc/arm-none-eabi/10.3.1/thumb/v7e-m+dp/hard/libgcc.a(unwind-arm.o)
                                                  /usr/lib/gcc/arm-none-eabi/10.3.1/../../../arm-none-eabi/lib/thumb/v7e-m+dp/hard/libstdc++.a(eh_catch.o)
_Unwind_DeleteException                           /usr/lib/gcc/arm-none-eabi/10.3.1/thumb/v7e-m+dp/hard/libgcc.a(unwind-arm.o)
                                                  /usr/lib/gcc/arm-none-eabi/10.3.1/../../../arm-none-eabi/lib/thumb/v7e-m+dp/hard/libstdc++.a(eh_catch.o)
_Unwind_ForcedUnwind                              /usr/lib/gcc/arm-none-eabi/10.3.1/thumb/v7e-m+dp/hard/libgcc.a(libunwind.o)
_Unwind_GetCFA                                    /usr/lib/gcc/arm-none-eabi/10.3.1/thumb/v7e-m+dp/hard/libgcc.a(unwind-arm.o)
_Unwind_GetDataRelBase                            /usr/lib/gcc/arm-none-eabi/10.3.1/thumb/v7e-m+dp/hard/libgcc.a(pr-support.o)
                                                  /usr/lib/gcc/arm-none-eabi/10.3.1/../../../arm-none-eabi/lib/thumb/v7e-m+dp/hard/libstdc++.a(eh_personality.o)
_Unwind_GetLanguageSpecificData                   /usr/lib/gcc/arm-none-eabi/10.3.1/thumb/v7e-m+dp/hard/libgcc.a(pr-support.o)
                                                  /usr/lib/gcc/arm-none-eabi/10.3.1/../../../arm-none-eabi/lib/thumb/v7e-m+dp/hard/libstdc++.a(eh_personality.o)
_Unwind_GetRegionStart                            /usr/lib/gcc/arm-none-eabi/10.3.1/thumb/v7e-m+dp/hard/libgcc.a(pr-support.o)
                                                  /usr/lib/gcc/arm-none-eabi/10.3.1/../../../arm-none-eabi/lib/thumb/v7e-m+dp/hard/libstdc++.a(eh_personality.o)
_Unwind_GetTextRelBase                            /usr/lib/gcc/arm-none-eabi/10.3.1/thumb/v7e-m+dp/hard/libgcc.a(pr-support.o)
                                                  /usr/lib/gcc/arm-none-eabi/10.3.1/../../../arm-none-eabi/lib/thumb/v7e-m+dp/hard/libstdc++.a(eh_personality.o)
_Unwind_RaiseException                            /usr/lib/gcc/arm-none-eabi/10.3.1/thumb/v7e-m+dp/hard/libgcc.a(libunwind.o)
                                                  /usr/lib/gcc/arm-none-eabi/10.3.1/../../../arm-none-eabi/lib/thumb/v7e-m+dp/hard/libstdc++.a(eh_throw.o)
_Unwind_Resume                                    /usr/lib/gcc/arm-none-eabi/10.3.1/thumb/v7e-m+dp/hard/libgcc.a(libunwind.o)
                                                  /usr/lib/gcc/arm-none-eabi/10.3.1/../../../arm-none-eabi/lib/thumb/v7e-m+dp/hard/libstdc++.a(eh_arm.o)
_Unwind_Resume_or_Rethrow                         /usr/lib/gcc/arm-none-eabi/10.3.1/thumb/v7e-m+dp/hard/libgcc.a(libunwind.o)
                                                  /usr/lib/gcc/arm-none-eabi/10.3.1/../../../arm-none-eabi/lib/thumb/v7e-m+dp/hard/libstdc++.a(eh_throw.o)
_Unwind_VRS_Get                                   /usr/lib/gcc/arm-none-eabi/10.3.1/thumb/v7e-m+dp/hard/libgcc.a(unwind-arm.o)
                                                  /usr/lib/gcc/arm-none-eabi/10.3.1/thumb/v7e-m+dp/hard/libgcc.a(pr-support.o)
                                                  /usr/lib/gcc/arm-none-eabi/10.3.1/../../../arm-none-eabi/lib/thumb/v7e-m+dp/hard/libstdc++.a(eh_personality.o)
_Unwind_VRS_Pop                                   /usr/lib/gcc/arm-none-eabi/10.3.1/thumb/v7e-m+dp/hard/libgcc.a(unwind-arm.o)
                                                  /usr/lib/gcc/arm-none-eabi/10.3.1/thumb/v7e-m+dp/hard/libgcc.a(pr-support.o)
_Unwind_VRS_Set                                   /usr/lib/gcc/arm-none-eabi/10.3.1/thumb/v7e-m+dp/hard/libgcc.a(unwind-arm.o)
                                                  /usr/lib/gcc/arm-none-eabi/10.3.1/thumb/v7e-m+dp/hard/libgcc.a(pr-support.o)
                                                  /usr/lib/gcc/arm-none-eabi/10.3.1/../../../arm-none-eabi/lib/thumb/v7e-m+dp/hard/libstdc++.a(eh_personality.o)
__TMC_END__                                       /usr/lib/gcc/arm-none-eabi/10.3.1/thumb/v7e-m+dp/hard/crtend.o
                                                  /usr/lib/gcc/arm-none-eabi/10.3.1/thumb/v7e-m+dp/hard/crtbegin.o
___Unwind_Backtrace                               /usr/lib/gcc/arm-none-eabi/10.3.1/thumb/v7e-m+dp/hard/libgcc.a(libunwind.o)
___Unwind_ForcedUnwind                            /usr/lib/gcc/arm-none-eabi/10.3.1/thumb/v7e-m+dp/hard/libgcc.a(libunwind.o)
___Unwind_RaiseException                          /usr/lib/gcc/arm-none-eabi/10.3.1/thumb/v7e-m+dp/hard/libgcc.a(libunwind.o)
___Unwind_Resume                                  /usr/lib/gcc/arm-none-eabi/10.3.1/thumb/v7e-m+dp/hard/libgcc.a(libunwind.o)
___Unwind_Resume_or_Rethrow                       /usr/lib/gcc/arm-none-eabi/10.3.1/thumb/v7e-m+dp/hard/libgcc.a(libunwind.o)
__aeabi_unwind_cpp_pr0                            /usr/lib/gcc/arm-none-eabi/10.3.1/thumb/v7e-m+dp/hard/libgcc.a(unwind-arm.o)
                                                  /usr/lib/gcc/arm-none-eabi/10.3.1/thumb/v7e-m+dp/hard/libgcc.a(pr-support.o)
                                                  /usr/lib/gcc/arm-none-eabi/10.3.1/../../../arm-none-eabi/lib/thumb/v7e-m+dp/hard/libstdc++.a(eh_throw.o)
                                                  /usr/lib/gcc/arm-none-eabi/10.3.1/../../../arm-none-eabi/lib/thumb/v7e-m+dp/hard/libstdc++.a(class_type_info.o)
                                                  /usr/lib/gcc/arm-none-eabi/10.3.1/../../../arm-none-eabi/lib/thumb/v7e-m+dp/hard/libstdc++.a(si_class_type_info.o)
                                                  /usr/lib/gcc/arm-none-eabi/10.3.1/../../../arm-none-eabi/lib/thumb/v7e-m+dp/hard/libstdc++.a(new_op.o)
                                                  /usr/lib/gcc/arm-none-eabi/10.3.1/../../../arm-none-eabi/lib/thumb/v7e-m+dp/hard/libstdc++.a(eh_personality.o)
                                                  /usr/lib/gcc/arm-none-eabi/10.3.1/../../../arm-none-eabi/lib/thumb/v7e-m+dp/hard/libstdc++.a(eh_arm.o)
                                                  build/main.o
__aeabi_unwind_cpp_pr1                            /usr/lib/gcc/arm-none-eabi/10.3.1/thumb/v7e-m+dp/hard/libgcc.a(unwind-arm.o)
                                                  /usr/lib/gcc/arm-none-eabi/10.3.1/thumb/v7e-m+dp/hard/libgcc.a(pr-support.o)
                                                  /usr/lib/gcc/arm-none-eabi/10.3.1/../../../arm-none-eabi/lib/thumb/v7e-m+dp/hard/libstdc++.a(eh_terminate.o)
                                                  /usr/lib/gcc/arm-none-eabi/10.3.1/../../../arm-none-eabi/lib/thumb/v7e-m+dp/hard/libstdc++.a(eh_personality.o)
                                                  build/main.o
                                                  build/LED.o
__aeabi_unwind_cpp_pr2                            /usr/lib/gcc/arm-none-eabi/10.3.1/thumb/v7e-m+dp/hard/libgcc.a(unwind-arm.o)
__bss_end__                                       /usr/lib/gcc/arm-none-eabi/10.3.1/../../../arm-none-eabi/lib/thumb/v7e-m+dp/hard/crt0.o
__bss_start__                                     /usr/lib/gcc/arm-none-eabi/10.3.1/../../../arm-none-eabi/lib/thumb/v7e-m+dp/hard/crt0.o
__call_exitprocs                                  /usr/lib/gcc/arm-none-eabi/10.3.1/../../../arm-none-eabi/lib/thumb/v7e-m+dp/hard/libc.a(lib_a-__call_atexit.o)
                                                  /usr/lib/gcc/arm-none-eabi/10.3.1/../../../arm-none-eabi/lib/thumb/v7e-m+dp/hard/libc.a(lib_a-exit.o)
__cxa_allocate_dependent_exception                /usr/lib/gcc/arm-none-eabi/10.3.1/../../../arm-none-eabi/lib/thumb/v7e-m+dp/hard/libstdc++.a(eh_alloc.o)
__cxa_allocate_exception                          /usr/lib/gcc/arm-none-eabi/10.3.1/../../../arm-none-eabi/lib/thumb/v7e-m+dp/hard/libstdc++.a(eh_alloc.o)
                                                  /usr/lib/gcc/arm-none-eabi/10.3.1/../../../arm-none-eabi/lib/thumb/v7e-m+dp/hard/libstdc++.a(eh_call.o)
                                                  /usr/lib/gcc/arm-none-eabi/10.3.1/../../../arm-none-eabi/lib/thumb/v7e-m+dp/hard/libstdc++.a(new_op.o)
__cxa_begin_catch                                 /usr/lib/gcc/arm-none-eabi/10.3.1/../../../arm-none-eabi/lib/thumb/v7e-m+dp/hard/libstdc++.a(eh_catch.o)
                                                  /usr/lib/gcc/arm-none-eabi/10.3.1/../../../arm-none-eabi/lib/thumb/v7e-m+dp/hard/libstdc++.a(eh_throw.o)
                                                  /usr/lib/gcc/arm-none-eabi/10.3.1/../../../arm-none-eabi/lib/thumb/v7e-m+dp/hard/libstdc++.a(eh_call.o)
                                                  /usr/lib/gcc/arm-none-eabi/10.3.1/../../../arm-none-eabi/lib/thumb/v7e-m+dp/hard/libstdc++.a(eh_terminate.o)
                                                  /usr/lib/gcc/arm-none-eabi/10.3.1/../../../arm-none-eabi/lib/thumb/v7e-m+dp/hard/libstdc++.a(eh_personality.o)
__cxa_begin_cleanup                               /usr/lib/gcc/arm-none-eabi/10.3.1/../../../arm-none-eabi/lib/thumb/v7e-m+dp/hard/libstdc++.a(eh_arm.o)
                                                  /usr/lib/gcc/arm-none-eabi/10.3.1/thumb/v7e-m+dp/hard/libgcc.a(unwind-arm.o)
                                                  /usr/lib/gcc/arm-none-eabi/10.3.1/../../../arm-none-eabi/lib/thumb/v7e-m+dp/hard/libstdc++.a(eh_personality.o)
__cxa_call_terminate                              /usr/lib/gcc/arm-none-eabi/10.3.1/../../../arm-none-eabi/lib/thumb/v7e-m+dp/hard/libstdc++.a(eh_call.o)
                                                  /usr/lib/gcc/arm-none-eabi/10.3.1/../../../arm-none-eabi/lib/thumb/v7e-m+dp/hard/libstdc++.a(eh_personality.o)
__cxa_call_unexpected                             /usr/lib/gcc/arm-none-eabi/10.3.1/../../../arm-none-eabi/lib/thumb/v7e-m+dp/hard/libstdc++.a(eh_call.o)
                                                  /usr/lib/gcc/arm-none-eabi/10.3.1/thumb/v7e-m+dp/hard/libgcc.a(unwind-arm.o)
                                                  /usr/lib/gcc/arm-none-eabi/10.3.1/../../../arm-none-eabi/lib/thumb/v7e-m+dp/hard/libstdc++.a(eh_terminate.o)
__cxa_deleted_virtual                             /usr/lib/gcc/arm-none-eabi/10.3.1/../../../arm-none-eabi/lib/thumb/v7e-m+dp/hard/libstdc++.a(pure.o)
__cxa_end_catch                                   /usr/lib/gcc/arm-none-eabi/10.3.1/../../../arm-none-eabi/lib/thumb/v7e-m+dp/hard/libstdc++.a(eh_catch.o)
                                                  /usr/lib/gcc/arm-none-eabi/10.3.1/../../../arm-none-eabi/lib/thumb/v7e-m+dp/hard/libstdc++.a(eh_call.o)
                                                  /usr/lib/gcc/arm-none-eabi/10.3.1/../../../arm-none-eabi/lib/thumb/v7e-m+dp/hard/libstdc++.a(eh_terminate.o)
__cxa_end_cleanup                                 /usr/lib/gcc/arm-none-eabi/10.3.1/../../../arm-none-eabi/lib/thumb/v7e-m+dp/hard/libstdc++.a(eh_arm.o)
                                                  /usr/lib/gcc/arm-none-eabi/10.3.1/../../../arm-none-eabi/lib/thumb/v7e-m+dp/hard/libstdc++.a(eh_call.o)
                                                  /usr/lib/gcc/arm-none-eabi/10.3.1/../../../arm-none-eabi/lib/thumb/v7e-m+dp/hard/libstdc++.a(eh_terminate.o)
                                                  build/main.o
__cxa_free_dependent_exception                    /usr/lib/gcc/arm-none-eabi/10.3.1/../../../arm-none-eabi/lib/thumb/v7e-m+dp/hard/libstdc++.a(eh_alloc.o)
__cxa_free_exception                              /usr/lib/gcc/arm-none-eabi/10.3.1/../../../arm-none-eabi/lib/thumb/v7e-m+dp/hard/libstdc++.a(eh_alloc.o)
                                                  /usr/lib/gcc/arm-none-eabi/10.3.1/../../../arm-none-eabi/lib/thumb/v7e-m+dp/hard/libstdc++.a(eh_throw.o)
__cxa_get_exception_ptr                           /usr/lib/gcc/arm-none-eabi/10.3.1/../../../arm-none-eabi/lib/thumb/v7e-m+dp/hard/libstdc++.a(eh_catch.o)
__cxa_get_globals                                 /usr/lib/gcc/arm-none-eabi/10.3.1/../../../arm-none-eabi/lib/thumb/v7e-m+dp/hard/libstdc++.a(eh_globals.o)
                                                  /usr/lib/gcc/arm-none-eabi/10.3.1/../../../arm-none-eabi/lib/thumb/v7e-m+dp/hard/libstdc++.a(eh_throw.o)
                                                  /usr/lib/gcc/arm-none-eabi/10.3.1/../../../arm-none-eabi/lib/thumb/v7e-m+dp/hard/libstdc++.a(eh_catch.o)
                                                  /usr/lib/gcc/arm-none-eabi/10.3.1/../../../arm-none-eabi/lib/thumb/v7e-m+dp/hard/libstdc++.a(eh_arm.o)
__cxa_get_globals_fast                            /usr/lib/gcc/arm-none-eabi/10.3.1/../../../arm-none-eabi/lib/thumb/v7e-m+dp/hard/libstdc++.a(eh_globals.o)
                                                  /usr/lib/gcc/arm-none-eabi/10.3.1/../../../arm-none-eabi/lib/thumb/v7e-m+dp/hard/libstdc++.a(eh_catch.o)
                                                  /usr/lib/gcc/arm-none-eabi/10.3.1/../../../arm-none-eabi/lib/thumb/v7e-m+dp/hard/libstdc++.a(eh_call.o)
__cxa_init_primary_exception                      /usr/lib/gcc/arm-none-eabi/10.3.1/../../../arm-none-eabi/lib/thumb/v7e-m+dp/hard/libstdc++.a(eh_throw.o)
__cxa_pure_virtual                                /usr/lib/gcc/arm-none-eabi/10.3.1/../../../arm-none-eabi/lib/thumb/v7e-m+dp/hard/libstdc++.a(pure.o)
                                                  /usr/lib/gcc/arm-none-eabi/10.3.1/../../../arm-none-eabi/lib/thumb/v7e-m+dp/hard/libstdc++.a(eh_exception.o)
__cxa_rethrow                                     /usr/lib/gcc/arm-none-eabi/10.3.1/../../../arm-none-eabi/lib/thumb/v7e-m+dp/hard/libstdc++.a(eh_throw.o)
                                                  /usr/lib/gcc/arm-none-eabi/10.3.1/../../../arm-none-eabi/lib/thumb/v7e-m+dp/hard/libstdc++.a(eh_call.o)
__cxa_throw                                       /usr/lib/gcc/arm-none-eabi/10.3.1/../../../arm-none-eabi/lib/thumb/v7e-m+dp/hard/libstdc++.a(eh_throw.o)
                                                  /usr/lib/gcc/arm-none-eabi/10.3.1/../../../arm-none-eabi/lib/thumb/v7e-m+dp/hard/libstdc++.a(eh_call.o)
                                                  /usr/lib/gcc/arm-none-eabi/10.3.1/../../../arm-none-eabi/lib/thumb/v7e-m+dp/hard/libstdc++.a(new_op.o)
__cxa_type_match                                  /usr/lib/gcc/arm-none-eabi/10.3.1/../../../arm-none-eabi/lib/thumb/v7e-m+dp/hard/libstdc++.a(eh_arm.o)
                                                  /usr/lib/gcc/arm-none-eabi/10.3.1/thumb/v7e-m+dp/hard/libgcc.a(unwind-arm.o)
                                                  /usr/lib/gcc/arm-none-eabi/10.3.1/../../../arm-none-eabi/lib/thumb/v7e-m+dp/hard/libstdc++.a(eh_call.o)
                                                  /usr/lib/gcc/arm-none-eabi/10.3.1/../../../arm-none-eabi/lib/thumb/v7e-m+dp/hard/libstdc++.a(eh_personality.o)
__cxxabiv1::__class_type_info::__do_catch(std::type_info const*, void**, unsigned int) const /usr/lib/gcc/arm-none-eabi/10.3.1/../../../arm-none-eabi/lib/thumb/v7e-m+dp/hard/libstdc++.a(class_type_info.o)
                                                  /usr/lib/gcc/arm-none-eabi/10.3.1/../../../arm-none-eabi/lib/thumb/v7e-m+dp/hard/libstdc++.a(si_class_type_info.o)
__cxxabiv1::__class_type_info::__do_dyncast(int, __cxxabiv1::__class_type_info::__sub_kind, __cxxabiv1::__class_type_info const*, void const*, __cxxabiv1::__class_type_info const*, void const*, __cxxabiv1::__class_type_info::__dyncast_result&) const /usr/lib/gcc/arm-none-eabi/10.3.1/../../../arm-none-eabi/lib/thumb/v7e-m+dp/hard/libstdc++.a(class_type_info.o)
__cxxabiv1::__class_type_info::__do_find_public_src(int, void const*, __cxxabiv1::__class_type_info const*, void const*) const /usr/lib/gcc/arm-none-eabi/10.3.1/../../../arm-none-eabi/lib/thumb/v7e-m+dp/hard/libstdc++.a(class_type_info.o)
__cxxabiv1::__class_type_info::__do_upcast(__cxxabiv1::__class_type_info const*, void const*, __cxxabiv1::__class_type_info::__upcast_result&) const /usr/lib/gcc/arm-none-eabi/10.3.1/../../../arm-none-eabi/lib/thumb/v7e-m+dp/hard/libstdc++.a(class_type_info.o)
                                                  /usr/lib/gcc/arm-none-eabi/10.3.1/../../../arm-none-eabi/lib/thumb/v7e-m+dp/hard/libstdc++.a(si_class_type_info.o)
__cxxabiv1::__class_type_info::__do_upcast(__cxxabiv1::__class_type_info const*, void**) const /usr/lib/gcc/arm-none-eabi/10.3.1/../../../arm-none-eabi/lib/thumb/v7e-m+dp/hard/libstdc++.a(class_type_info.o)
                                                  /usr/lib/gcc/arm-none-eabi/10.3.1/../../../arm-none-eabi/lib/thumb/v7e-m+dp/hard/libstdc++.a(si_class_type_info.o)
__cxxabiv1::__class_type_info::~__class_type_info() /usr/lib/gcc/arm-none-eabi/10.3.1/../../../arm-none-eabi/lib/thumb/v7e-m+dp/hard/libstdc++.a(class_type_info.o)
__cxxabiv1::__class_type_info::~__class_type_info() /usr/lib/gcc/arm-none-eabi/10.3.1/../../../arm-none-eabi/lib/thumb/v7e-m+dp/hard/libstdc++.a(class_type_info.o)
                                                  /usr/lib/gcc/arm-none-eabi/10.3.1/../../../arm-none-eabi/lib/thumb/v7e-m+dp/hard/libstdc++.a(si_class_type_info.o)
__cxxabiv1::__class_type_info::~__class_type_info() /usr/lib/gcc/arm-none-eabi/10.3.1/../../../arm-none-eabi/lib/thumb/v7e-m+dp/hard/libstdc++.a(class_type_info.o)
__cxxabiv1::__forced_unwind::~__forced_unwind()   /usr/lib/gcc/arm-none-eabi/10.3.1/../../../arm-none-eabi/lib/thumb/v7e-m+dp/hard/libstdc++.a(eh_exception.o)
__cxxabiv1::__forced_unwind::~__forced_unwind()   /usr/lib/gcc/arm-none-eabi/10.3.1/../../../arm-none-eabi/lib/thumb/v7e-m+dp/hard/libstdc++.a(eh_exception.o)
__cxxabiv1::__forced_unwind::~__forced_unwind()   /usr/lib/gcc/arm-none-eabi/10.3.1/../../../arm-none-eabi/lib/thumb/v7e-m+dp/hard/libstdc++.a(eh_exception.o)
__cxxabiv1::__foreign_exception::~__foreign_exception() /usr/lib/gcc/arm-none-eabi/10.3.1/../../../arm-none-eabi/lib/thumb/v7e-m+dp/hard/libstdc++.a(eh_exception.o)
__cxxabiv1::__foreign_exception::~__foreign_exception() /usr/lib/gcc/arm-none-eabi/10.3.1/../../../arm-none-eabi/lib/thumb/v7e-m+dp/hard/libstdc++.a(eh_exception.o)
__cxxabiv1::__foreign_exception::~__foreign_exception() /usr/lib/gcc/arm-none-eabi/10.3.1/../../../arm-none-eabi/lib/thumb/v7e-m+dp/hard/libstdc++.a(eh_exception.o)
__cxxabiv1::__si_class_type_info::__do_dyncast(int, __cxxabiv1::__class_type_info::__sub_kind, __cxxabiv1::__class_type_info const*, void const*, __cxxabiv1::__class_type_info const*, void const*, __cxxabiv1::__class_type_info::__dyncast_result&) const /usr/lib/gcc/arm-none-eabi/10.3.1/../../../arm-none-eabi/lib/thumb/v7e-m+dp/hard/libstdc++.a(si_class_type_info.o)
__cxxabiv1::__si_class_type_info::__do_find_public_src(int, void const*, __cxxabiv1::__class_type_info const*, void const*) const /usr/lib/gcc/arm-none-eabi/10.3.1/../../../arm-none-eabi/lib/thumb/v7e-m+dp/hard/libstdc++.a(si_class_type_info.o)
__cxxabiv1::__si_class_type_info::__do_upcast(__cxxabiv1::__class_type_info const*, void const*, __cxxabiv1::__class_type_info::__upcast_result&) const /usr/lib/gcc/arm-none-eabi/10.3.1/../../../arm-none-eabi/lib/thumb/v7e-m+dp/hard/libstdc++.a(si_class_type_info.o)
__cxxabiv1::__si_class_type_info::~__si_class_type_info() /usr/lib/gcc/arm-none-eabi/10.3.1/../../../arm-none-eabi/lib/thumb/v7e-m+dp/hard/libstdc++.a(si_class_type_info.o)
__cxxabiv1::__si_class_type_info::~__si_class_type_info() /usr/lib/gcc/arm-none-eabi/10.3.1/../../../arm-none-eabi/lib/thumb/v7e-m+dp/hard/libstdc++.a(si_class_type_info.o)
__cxxabiv1::__si_class_type_info::~__si_class_type_info() /usr/lib/gcc/arm-none-eabi/10.3.1/../../../arm-none-eabi/lib/thumb/v7e-m+dp/hard/libstdc++.a(si_class_type_info.o)
__cxxabiv1::__terminate(void (*)())               /usr/lib/gcc/arm-none-eabi/10.3.1/../../../arm-none-eabi/lib/thumb/v7e-m+dp/hard/libstdc++.a(eh_terminate.o)
                                                  /usr/lib/gcc/arm-none-eabi/10.3.1/../../../arm-none-eabi/lib/thumb/v7e-m+dp/hard/libstdc++.a(eh_throw.o)
                                                  /usr/lib/gcc/arm-none-eabi/10.3.1/../../../arm-none-eabi/lib/thumb/v7e-m+dp/hard/libstdc++.a(eh_call.o)
__cxxabiv1::__terminate_handler                   /usr/lib/gcc/arm-none-eabi/10.3.1/../../../arm-none-eabi/lib/thumb/v7e-m+dp/hard/libstdc++.a(eh_term_handler.o)
                                                  /usr/lib/gcc/arm-none-eabi/10.3.1/../../../arm-none-eabi/lib/thumb/v7e-m+dp/hard/libstdc++.a(eh_terminate.o)
__cxxabiv1::__unexpected(void (*)())              /usr/lib/gcc/arm-none-eabi/10.3.1/../../../arm-none-eabi/lib/thumb/v7e-m+dp/hard/libstdc++.a(eh_terminate.o)
                                                  /usr/lib/gcc/arm-none-eabi/10.3.1/../../../arm-none-eabi/lib/thumb/v7e-m+dp/hard/libstdc++.a(eh_call.o)
__cxxabiv1::__unexpected_handler                  /usr/lib/gcc/arm-none-eabi/10.3.1/../../../arm-none-eabi/lib/thumb/v7e-m+dp/hard/libstdc++.a(eh_unex_handler.o)
                                                  /usr/lib/gcc/arm-none-eabi/10.3.1/../../../arm-none-eabi/lib/thumb/v7e-m+dp/hard/libstdc++.a(eh_terminate.o)
__deregister_frame_info                           /usr/lib/gcc/arm-none-eabi/10.3.1/thumb/v7e-m+dp/hard/crtbegin.o
__dso_handle                                      /usr/lib/gcc/arm-none-eabi/10.3.1/thumb/v7e-m+dp/hard/crtbegin.o
__exidx_end                                       /usr/lib/gcc/arm-none-eabi/10.3.1/thumb/v7e-m+dp/hard/libgcc.a(unwind-arm.o)
__exidx_start                                     /usr/lib/gcc/arm-none-eabi/10.3.1/thumb/v7e-m+dp/hard/libgcc.a(unwind-arm.o)
__fini_array_end                                  /usr/lib/gcc/arm-none-eabi/10.3.1/../../../arm-none-eabi/lib/thumb/v7e-m+dp/hard/libc.a(lib_a-fini.o)
__fini_array_start                                /usr/lib/gcc/arm-none-eabi/10.3.1/../../../arm-none-eabi/lib/thumb/v7e-m+dp/hard/libc.a(lib_a-fini.o)
__gnu_Unwind_Backtrace                            /usr/lib/gcc/arm-none-eabi/10.3.1/thumb/v7e-m+dp/hard/libgcc.a(unwind-arm.o)
                                                  /usr/lib/gcc/arm-none-eabi/10.3.1/thumb/v7e-m+dp/hard/libgcc.a(libunwind.o)
__gnu_Unwind_Find_exidx                           /usr/lib/gcc/arm-none-eabi/10.3.1/thumb/v7e-m+dp/hard/libgcc.a(unwind-arm.o)
__gnu_Unwind_ForcedUnwind                         /usr/lib/gcc/arm-none-eabi/10.3.1/thumb/v7e-m+dp/hard/libgcc.a(unwind-arm.o)
                                                  /usr/lib/gcc/arm-none-eabi/10.3.1/thumb/v7e-m+dp/hard/libgcc.a(libunwind.o)
__gnu_Unwind_RaiseException                       /usr/lib/gcc/arm-none-eabi/10.3.1/thumb/v7e-m+dp/hard/libgcc.a(unwind-arm.o)
                                                  /usr/lib/gcc/arm-none-eabi/10.3.1/thumb/v7e-m+dp/hard/libgcc.a(libunwind.o)
__gnu_Unwind_Restore_VFP                          /usr/lib/gcc/arm-none-eabi/10.3.1/thumb/v7e-m+dp/hard/libgcc.a(libunwind.o)
                                                  /usr/lib/gcc/arm-none-eabi/10.3.1/thumb/v7e-m+dp/hard/libgcc.a(unwind-arm.o)
__gnu_Unwind_Restore_VFP_D                        /usr/lib/gcc/arm-none-eabi/10.3.1/thumb/v7e-m+dp/hard/libgcc.a(libunwind.o)
                                                  /usr/lib/gcc/arm-none-eabi/10.3.1/thumb/v7e-m+dp/hard/libgcc.a(unwind-arm.o)
__gnu_Unwind_Restore_VFP_D_16_to_31               /usr/lib/gcc/arm-none-eabi/10.3.1/thumb/v7e-m+dp/hard/libgcc.a(libunwind.o)
                                                  /usr/lib/gcc/arm-none-eabi/10.3.1/thumb/v7e-m+dp/hard/libgcc.a(unwind-arm.o)
__gnu_Unwind_Restore_WMMXC                        /usr/lib/gcc/arm-none-eabi/10.3.1/thumb/v7e-m+dp/hard/libgcc.a(libunwind.o)
                                                  /usr/lib/gcc/arm-none-eabi/10.3.1/thumb/v7e-m+dp/hard/libgcc.a(unwind-arm.o)
__gnu_Unwind_Restore_WMMXD                        /usr/lib/gcc/arm-none-eabi/10.3.1/thumb/v7e-m+dp/hard/libgcc.a(libunwind.o)
                                                  /usr/lib/gcc/arm-none-eabi/10.3.1/thumb/v7e-m+dp/hard/libgcc.a(unwind-arm.o)
__gnu_Unwind_Resume                               /usr/lib/gcc/arm-none-eabi/10.3.1/thumb/v7e-m+dp/hard/libgcc.a(unwind-arm.o)
                                                  /usr/lib/gcc/arm-none-eabi/10.3.1/thumb/v7e-m+dp/hard/libgcc.a(libunwind.o)
__gnu_Unwind_Resume_or_Rethrow                    /usr/lib/gcc/arm-none-eabi/10.3.1/thumb/v7e-m+dp/hard/libgcc.a(unwind-arm.o)
                                                  /usr/lib/gcc/arm-none-eabi/10.3.1/thumb/v7e-m+dp/hard/libgcc.a(libunwind.o)
__gnu_Unwind_Save_VFP                             /usr/lib/gcc/arm-none-eabi/10.3.1/thumb/v7e-m+dp/hard/libgcc.a(libunwind.o)
                                                  /usr/lib/gcc/arm-none-eabi/10.3.1/thumb/v7e-m+dp/hard/libgcc.a(unwind-arm.o)
__gnu_Unwind_Save_VFP_D                           /usr/lib/gcc/arm-none-eabi/10.3.1/thumb/v7e-m+dp/hard/libgcc.a(libunwind.o)
                                                  /usr/lib/gcc/arm-none-eabi/10.3.1/thumb/v7e-m+dp/hard/libgcc.a(unwind-arm.o)
__gnu_Unwind_Save_VFP_D_16_to_31                  /usr/lib/gcc/arm-none-eabi/10.3.1/thumb/v7e-m+dp/hard/libgcc.a(libunwind.o)
                                                  /usr/lib/gcc/arm-none-eabi/10.3.1/thumb/v7e-m+dp/hard/libgcc.a(unwind-arm.o)
__gnu_Unwind_Save_WMMXC                           /usr/lib/gcc/arm-none-eabi/10.3.1/thumb/v7e-m+dp/hard/libgcc.a(libunwind.o)
                                                  /usr/lib/gcc/arm-none-eabi/10.3.1/thumb/v7e-m+dp/hard/libgcc.a(unwind-arm.o)
__gnu_Unwind_Save_WMMXD                           /usr/lib/gcc/arm-none-eabi/10.3.1/thumb/v7e-m+dp/hard/libgcc.a(libunwind.o)
                                                  /usr/lib/gcc/arm-none-eabi/10.3.1/thumb/v7e-m+dp/hard/libgcc.a(unwind-arm.o)
__gnu_cxx::__freeres()                            /usr/lib/gcc/arm-none-eabi/10.3.1/../../../arm-none-eabi/lib/thumb/v7e-m+dp/hard/libstdc++.a(eh_alloc.o)
__gnu_end_cleanup                                 /usr/lib/gcc/arm-none-eabi/10.3.1/../../../arm-none-eabi/lib/thumb/v7e-m+dp/hard/libstdc++.a(eh_arm.o)
__gnu_unwind_execute                              /usr/lib/gcc/arm-none-eabi/10.3.1/thumb/v7e-m+dp/hard/libgcc.a(pr-support.o)
                                                  /usr/lib/gcc/arm-none-eabi/10.3.1/thumb/v7e-m+dp/hard/libgcc.a(unwind-arm.o)
__gnu_unwind_frame                                /usr/lib/gcc/arm-none-eabi/10.3.1/thumb/v7e-m+dp/hard/libgcc.a(pr-support.o)
                                                  /usr/lib/gcc/arm-none-eabi/10.3.1/../../../arm-none-eabi/lib/thumb/v7e-m+dp/hard/libstdc++.a(eh_personality.o)
__gxx_personality_v0                              /usr/lib/gcc/arm-none-eabi/10.3.1/../../../arm-none-eabi/lib/thumb/v7e-m+dp/hard/libstdc++.a(eh_personality.o)
                                                  /usr/lib/gcc/arm-none-eabi/10.3.1/../../../arm-none-eabi/lib/thumb/v7e-m+dp/hard/libstdc++.a(eh_catch.o)
                                                  /usr/lib/gcc/arm-none-eabi/10.3.1/../../../arm-none-eabi/lib/thumb/v7e-m+dp/hard/libstdc++.a(eh_call.o)
                                                  /usr/lib/gcc/arm-none-eabi/10.3.1/../../../arm-none-eabi/lib/thumb/v7e-m+dp/hard/libstdc++.a(eh_terminate.o)
                                                  build/main.o
__init_array_end                                  /usr/lib/gcc/arm-none-eabi/10.3.1/../../../arm-none-eabi/lib/thumb/v7e-m+dp/hard/libc.a(lib_a-init.o)
__init_array_start                                /usr/lib/gcc/arm-none-eabi/10.3.1/../../../arm-none-eabi/lib/thumb/v7e-m+dp/hard/libc.a(lib_a-init.o)
__libc_fini                                       /usr/lib/gcc/arm-none-eabi/10.3.1/../../../arm-none-eabi/lib/thumb/v7e-m+dp/hard/libc.a(lib_a-__call_atexit.o)
__libc_fini_array                                 /usr/lib/gcc/arm-none-eabi/10.3.1/../../../arm-none-eabi/lib/thumb/v7e-m+dp/hard/libc.a(lib_a-fini.o)
                                                  /usr/lib/gcc/arm-none-eabi/10.3.1/../../../arm-none-eabi/lib/thumb/v7e-m+dp/hard/libc.a(lib_a-__call_atexit.o)
                                                  /usr/lib/gcc/arm-none-eabi/10.3.1/../../../arm-none-eabi/lib/thumb/v7e-m+dp/hard/crt0.o
__libc_init_array                                 /usr/lib/gcc/arm-none-eabi/10.3.1/../../../arm-none-eabi/lib/thumb/v7e-m+dp/hard/libc.a(lib_a-init.o)
                                                  build/startup_stm32h733xx.o
                                                  /usr/lib/gcc/arm-none-eabi/10.3.1/../../../arm-none-eabi/lib/thumb/v7e-m+dp/hard/crt0.o
__malloc_av_                                      /usr/lib/gcc/arm-none-eabi/10.3.1/../../../arm-none-eabi/lib/thumb/v7e-m+dp/hard/libc.a(lib_a-mallocr.o)
                                                  /usr/lib/gcc/arm-none-eabi/10.3.1/../../../arm-none-eabi/lib/thumb/v7e-m+dp/hard/libc.a(lib_a-freer.o)
__malloc_current_mallinfo                         /usr/lib/gcc/arm-none-eabi/10.3.1/../../../arm-none-eabi/lib/thumb/v7e-m+dp/hard/libc.a(lib_a-mallocr.o)
                                                  /usr/lib/gcc/arm-none-eabi/10.3.1/../../../arm-none-eabi/lib/thumb/v7e-m+dp/hard/libc.a(lib_a-freer.o)
__malloc_lock                                     /usr/lib/gcc/arm-none-eabi/10.3.1/../../../arm-none-eabi/lib/thumb/v7e-m+dp/hard/libc.a(lib_a-mlock.o)
                                                  /usr/lib/gcc/arm-none-eabi/10.3.1/../../../arm-none-eabi/lib/thumb/v7e-m+dp/hard/libc.a(lib_a-freer.o)
                                                  /usr/lib/gcc/arm-none-eabi/10.3.1/../../../arm-none-eabi/lib/thumb/v7e-m+dp/hard/libc.a(lib_a-mallocr.o)
__malloc_max_sbrked_mem                           /usr/lib/gcc/arm-none-eabi/10.3.1/../../../arm-none-eabi/lib/thumb/v7e-m+dp/hard/libc.a(lib_a-mallocr.o)
__malloc_max_total_mem                            /usr/lib/gcc/arm-none-eabi/10.3.1/../../../arm-none-eabi/lib/thumb/v7e-m+dp/hard/libc.a(lib_a-mallocr.o)
__malloc_sbrk_base                                /usr/lib/gcc/arm-none-eabi/10.3.1/../../../arm-none-eabi/lib/thumb/v7e-m+dp/hard/libc.a(lib_a-mallocr.o)
                                                  /usr/lib/gcc/arm-none-eabi/10.3.1/../../../arm-none-eabi/lib/thumb/v7e-m+dp/hard/libc.a(lib_a-freer.o)
__malloc_top_pad                                  /usr/lib/gcc/arm-none-eabi/10.3.1/../../../arm-none-eabi/lib/thumb/v7e-m+dp/hard/libc.a(lib_a-mallocr.o)
                                                  /usr/lib/gcc/arm-none-eabi/10.3.1/../../../arm-none-eabi/lib/thumb/v7e-m+dp/hard/libc.a(lib_a-freer.o)
__malloc_trim_threshold                           /usr/lib/gcc/arm-none-eabi/10.3.1/../../../arm-none-eabi/lib/thumb/v7e-m+dp/hard/libc.a(lib_a-mallocr.o)
                                                  /usr/lib/gcc/arm-none-eabi/10.3.1/../../../arm-none-eabi/lib/thumb/v7e-m+dp/hard/libc.a(lib_a-freer.o)
__malloc_unlock                                   /usr/lib/gcc/arm-none-eabi/10.3.1/../../../arm-none-eabi/lib/thumb/v7e-m+dp/hard/libc.a(lib_a-mlock.o)
                                                  /usr/lib/gcc/arm-none-eabi/10.3.1/../../../arm-none-eabi/lib/thumb/v7e-m+dp/hard/libc.a(lib_a-freer.o)
                                                  /usr/lib/gcc/arm-none-eabi/10.3.1/../../../arm-none-eabi/lib/thumb/v7e-m+dp/hard/libc.a(lib_a-mallocr.o)
__preinit_array_end                               /usr/lib/gcc/arm-none-eabi/10.3.1/../../../arm-none-eabi/lib/thumb/v7e-m+dp/hard/libc.a(lib_a-init.o)
__preinit_array_start                             /usr/lib/gcc/arm-none-eabi/10.3.1/../../../arm-none-eabi/lib/thumb/v7e-m+dp/hard/libc.a(lib_a-init.o)
__register_exitproc                               /usr/lib/gcc/arm-none-eabi/10.3.1/../../../arm-none-eabi/lib/thumb/v7e-m+dp/hard/libc.a(lib_a-__atexit.o)
                                                  /usr/lib/gcc/arm-none-eabi/10.3.1/../../../arm-none-eabi/lib/thumb/v7e-m+dp/hard/libc.a(lib_a-atexit.o)
__register_frame_info                             /usr/lib/gcc/arm-none-eabi/10.3.1/thumb/v7e-m+dp/hard/crtbegin.o
__restore_core_regs                               /usr/lib/gcc/arm-none-eabi/10.3.1/thumb/v7e-m+dp/hard/libgcc.a(libunwind.o)
__sigtramp                                        /usr/lib/gcc/arm-none-eabi/10.3.1/../../../arm-none-eabi/lib/thumb/v7e-m+dp/hard/libc.a(lib_a-signal.o)
__sigtramp_r                                      /usr/lib/gcc/arm-none-eabi/10.3.1/../../../arm-none-eabi/lib/thumb/v7e-m+dp/hard/libc.a(lib_a-signal.o)
__stack                                           /usr/lib/gcc/arm-none-eabi/10.3.1/../../../arm-none-eabi/lib/thumb/v7e-m+dp/hard/crt0.o
_ebss                                             build/startup_stm32h733xx.o
_edata                                            build/startup_stm32h733xx.o
_estack                                           build/startup_stm32h733xx.o
_exit                                             /usr/lib/gcc/arm-none-eabi/10.3.1/../../../arm-none-eabi/lib/thumb/v7e-m+dp/hard/libnosys.a(_exit.o)
                                                  /usr/lib/gcc/arm-none-eabi/10.3.1/../../../arm-none-eabi/lib/thumb/v7e-m+dp/hard/libc.a(lib_a-exit.o)
                                                  /usr/lib/gcc/arm-none-eabi/10.3.1/../../../arm-none-eabi/lib/thumb/v7e-m+dp/hard/libc.a(lib_a-abort.o)
_fini                                             /usr/lib/gcc/arm-none-eabi/10.3.1/thumb/v7e-m+dp/hard/crti.o
                                                  /usr/lib/gcc/arm-none-eabi/10.3.1/../../../arm-none-eabi/lib/thumb/v7e-m+dp/hard/libc.a(lib_a-fini.o)
_free_r                                           /usr/lib/gcc/arm-none-eabi/10.3.1/../../../arm-none-eabi/lib/thumb/v7e-m+dp/hard/libc.a(lib_a-freer.o)
                                                  /usr/lib/gcc/arm-none-eabi/10.3.1/../../../arm-none-eabi/lib/thumb/v7e-m+dp/hard/libc.a(lib_a-reent.o)
                                                  /usr/lib/gcc/arm-none-eabi/10.3.1/../../../arm-none-eabi/lib/thumb/v7e-m+dp/hard/libc.a(lib_a-mallocr.o)
                                                  /usr/lib/gcc/arm-none-eabi/10.3.1/../../../arm-none-eabi/lib/thumb/v7e-m+dp/hard/libc.a(lib_a-malloc.o)
_getpid                                           /usr/lib/gcc/arm-none-eabi/10.3.1/../../../arm-none-eabi/lib/thumb/v7e-m+dp/hard/libnosys.a(getpid.o)
                                                  /usr/lib/gcc/arm-none-eabi/10.3.1/../../../arm-none-eabi/lib/thumb/v7e-m+dp/hard/libc.a(lib_a-signalr.o)
_getpid_r                                         /usr/lib/gcc/arm-none-eabi/10.3.1/../../../arm-none-eabi/lib/thumb/v7e-m+dp/hard/libc.a(lib_a-signalr.o)
                                                  /usr/lib/gcc/arm-none-eabi/10.3.1/../../../arm-none-eabi/lib/thumb/v7e-m+dp/hard/libc.a(lib_a-signal.o)
_global_impure_ptr                                /usr/lib/gcc/arm-none-eabi/10.3.1/../../../arm-none-eabi/lib/thumb/v7e-m+dp/hard/libc.a(lib_a-impure.o)
                                                  /usr/lib/gcc/arm-none-eabi/10.3.1/../../../arm-none-eabi/lib/thumb/v7e-m+dp/hard/libc.a(lib_a-__call_atexit.o)
                                                  /usr/lib/gcc/arm-none-eabi/10.3.1/../../../arm-none-eabi/lib/thumb/v7e-m+dp/hard/libc.a(lib_a-__atexit.o)
                                                  /usr/lib/gcc/arm-none-eabi/10.3.1/../../../arm-none-eabi/lib/thumb/v7e-m+dp/hard/libc.a(lib_a-exit.o)
_impure_ptr                                       /usr/lib/gcc/arm-none-eabi/10.3.1/../../../arm-none-eabi/lib/thumb/v7e-m+dp/hard/libc.a(lib_a-impure.o)
                                                  /usr/lib/gcc/arm-none-eabi/10.3.1/../../../arm-none-eabi/lib/thumb/v7e-m+dp/hard/libc.a(lib_a-reent.o)
                                                  /usr/lib/gcc/arm-none-eabi/10.3.1/../../../arm-none-eabi/lib/thumb/v7e-m+dp/hard/libc.a(lib_a-signal.o)
                                                  /usr/lib/gcc/arm-none-eabi/10.3.1/../../../arm-none-eabi/lib/thumb/v7e-m+dp/hard/libc.a(lib_a-malloc.o)
_init                                             /usr/lib/gcc/arm-none-eabi/10.3.1/thumb/v7e-m+dp/hard/crti.o
                                                  /usr/lib/gcc/arm-none-eabi/10.3.1/../../../arm-none-eabi/lib/thumb/v7e-m+dp/hard/libc.a(lib_a-init.o)
_init_signal                                      /usr/lib/gcc/arm-none-eabi/10.3.1/../../../arm-none-eabi/lib/thumb/v7e-m+dp/hard/libc.a(lib_a-signal.o)
_init_signal_r                                    /usr/lib/gcc/arm-none-eabi/10.3.1/../../../arm-none-eabi/lib/thumb/v7e-m+dp/hard/libc.a(lib_a-signal.o)
_kill                                             /usr/lib/gcc/arm-none-eabi/10.3.1/../../../arm-none-eabi/lib/thumb/v7e-m+dp/hard/libnosys.a(kill.o)
                                                  /usr/lib/gcc/arm-none-eabi/10.3.1/../../../arm-none-eabi/lib/thumb/v7e-m+dp/hard/libc.a(lib_a-signalr.o)
_kill_r                                           /usr/lib/gcc/arm-none-eabi/10.3.1/../../../arm-none-eabi/lib/thumb/v7e-m+dp/hard/libc.a(lib_a-signalr.o)
                                                  /usr/lib/gcc/arm-none-eabi/10.3.1/../../../arm-none-eabi/lib/thumb/v7e-m+dp/hard/libc.a(lib_a-signal.o)
_mainCRTStartup                                   /usr/lib/gcc/arm-none-eabi/10.3.1/../../../arm-none-eabi/lib/thumb/v7e-m+dp/hard/crt0.o
_malloc_r                                         /usr/lib/gcc/arm-none-eabi/10.3.1/../../../arm-none-eabi/lib/thumb/v7e-m+dp/hard/libc.a(lib_a-mallocr.o)
                                                  /usr/lib/gcc/arm-none-eabi/10.3.1/../../../arm-none-eabi/lib/thumb/v7e-m+dp/hard/libc.a(lib_a-signal.o)
                                                  /usr/lib/gcc/arm-none-eabi/10.3.1/../../../arm-none-eabi/lib/thumb/v7e-m+dp/hard/libc.a(lib_a-malloc.o)
_malloc_trim_r                                    /usr/lib/gcc/arm-none-eabi/10.3.1/../../../arm-none-eabi/lib/thumb/v7e-m+dp/hard/libc.a(lib_a-freer.o)
_raise_r                                          /usr/lib/gcc/arm-none-eabi/10.3.1/../../../arm-none-eabi/lib/thumb/v7e-m+dp/hard/libc.a(lib_a-signal.o)
_reclaim_reent                                    /usr/lib/gcc/arm-none-eabi/10.3.1/../../../arm-none-eabi/lib/thumb/v7e-m+dp/hard/libc.a(lib_a-reent.o)
_sbrk                                             /usr/lib/gcc/arm-none-eabi/10.3.1/../../../arm-none-eabi/lib/thumb/v7e-m+dp/hard/libnosys.a(sbrk.o)
                                                  /usr/lib/gcc/arm-none-eabi/10.3.1/../../../arm-none-eabi/lib/thumb/v7e-m+dp/hard/libc.a(lib_a-sbrkr.o)
_sbrk_r                                           /usr/lib/gcc/arm-none-eabi/10.3.1/../../../arm-none-eabi/lib/thumb/v7e-m+dp/hard/libc.a(lib_a-sbrkr.o)
                                                  /usr/lib/gcc/arm-none-eabi/10.3.1/../../../arm-none-eabi/lib/thumb/v7e-m+dp/hard/libc.a(lib_a-freer.o)
                                                  /usr/lib/gcc/arm-none-eabi/10.3.1/../../../arm-none-eabi/lib/thumb/v7e-m+dp/hard/libc.a(lib_a-mallocr.o)
_sbss                                             build/startup_stm32h733xx.o
_sdata                                            build/startup_stm32h733xx.o
_sidata                                           build/startup_stm32h733xx.o
_signal_r                                         /usr/lib/gcc/arm-none-eabi/10.3.1/../../../arm-none-eabi/lib/thumb/v7e-m+dp/hard/libc.a(lib_a-signal.o)
_stack_init                                       /usr/lib/gcc/arm-none-eabi/10.3.1/../../../arm-none-eabi/lib/thumb/v7e-m+dp/hard/crt0.o
_start                                            /usr/lib/gcc/arm-none-eabi/10.3.1/../../../arm-none-eabi/lib/thumb/v7e-m+dp/hard/crt0.o
abort                                             /usr/lib/gcc/arm-none-eabi/10.3.1/../../../arm-none-eabi/lib/thumb/v7e-m+dp/hard/libc.a(lib_a-abort.o)
                                                  /usr/lib/gcc/arm-none-eabi/10.3.1/thumb/v7e-m+dp/hard/libgcc.a(pr-support.o)
                                                  /usr/lib/gcc/arm-none-eabi/10.3.1/thumb/v7e-m+dp/hard/libgcc.a(unwind-arm.o)
                                                  /usr/lib/gcc/arm-none-eabi/10.3.1/../../../arm-none-eabi/lib/thumb/v7e-m+dp/hard/libstdc++.a(eh_term_handler.o)
                                                  /usr/lib/gcc/arm-none-eabi/10.3.1/../../../arm-none-eabi/lib/thumb/v7e-m+dp/hard/libstdc++.a(eh_terminate.o)
                                                  /usr/lib/gcc/arm-none-eabi/10.3.1/../../../arm-none-eabi/lib/thumb/v7e-m+dp/hard/libstdc++.a(eh_personality.o)
atexit                                            /usr/lib/gcc/arm-none-eabi/10.3.1/../../../arm-none-eabi/lib/thumb/v7e-m+dp/hard/libc.a(lib_a-atexit.o)
                                                  /usr/lib/gcc/arm-none-eabi/10.3.1/../../../arm-none-eabi/lib/thumb/v7e-m+dp/hard/libc.a(lib_a-__call_atexit.o)
                                                  /usr/lib/gcc/arm-none-eabi/10.3.1/../../../arm-none-eabi/lib/thumb/v7e-m+dp/hard/crt0.o
cleanup_glue                                      /usr/lib/gcc/arm-none-eabi/10.3.1/../../../arm-none-eabi/lib/thumb/v7e-m+dp/hard/libc.a(lib_a-reent.o)
defaultTaskHandle                                 build/main.o
eTaskGetState                                     build/tasks.o
                                                  build/cmsis_os2.o
end                                               /usr/lib/gcc/arm-none-eabi/10.3.1/../../../arm-none-eabi/lib/thumb/v7e-m+dp/hard/libnosys.a(sbrk.o)
errno                                             /usr/lib/gcc/arm-none-eabi/10.3.1/../../../arm-none-eabi/lib/thumb/v7e-m+dp/hard/libc.a(lib_a-reent.o)
                                                  /usr/lib/gcc/arm-none-eabi/10.3.1/../../../arm-none-eabi/lib/thumb/v7e-m+dp/hard/libnosys.a(kill.o)
                                                  /usr/lib/gcc/arm-none-eabi/10.3.1/../../../arm-none-eabi/lib/thumb/v7e-m+dp/hard/libnosys.a(getpid.o)
                                                  /usr/lib/gcc/arm-none-eabi/10.3.1/../../../arm-none-eabi/lib/thumb/v7e-m+dp/hard/libc.a(lib_a-signalr.o)
                                                  /usr/lib/gcc/arm-none-eabi/10.3.1/../../../arm-none-eabi/lib/thumb/v7e-m+dp/hard/libc.a(lib_a-sbrkr.o)
exit                                              /usr/lib/gcc/arm-none-eabi/10.3.1/../../../arm-none-eabi/lib/thumb/v7e-m+dp/hard/libc.a(lib_a-exit.o)
                                                  /usr/lib/gcc/arm-none-eabi/10.3.1/../../../arm-none-eabi/lib/thumb/v7e-m+dp/hard/crt0.o
free                                              /usr/lib/gcc/arm-none-eabi/10.3.1/../../../arm-none-eabi/lib/thumb/v7e-m+dp/hard/libc.a(lib_a-malloc.o)
                                                  /usr/lib/gcc/arm-none-eabi/10.3.1/../../../arm-none-eabi/lib/thumb/v7e-m+dp/hard/libstdc++.a(eh_alloc.o)
                                                  /usr/lib/gcc/arm-none-eabi/10.3.1/../../../arm-none-eabi/lib/thumb/v7e-m+dp/hard/libstdc++.a(del_op.o)
g_pfnVectors                                      build/startup_stm32h733xx.o
hardware_init_hook                                /usr/lib/gcc/arm-none-eabi/10.3.1/../../../arm-none-eabi/lib/thumb/v7e-m+dp/hard/crt0.o
htim1                                             build/stm32h7xx_hal_timebase_tim.o
                                                  build/stm32h7xx_it.o
main                                              build/main.o
                                                  build/startup_stm32h733xx.o
                                                  /usr/lib/gcc/arm-none-eabi/10.3.1/../../../arm-none-eabi/lib/thumb/v7e-m+dp/hard/crt0.o
malloc                                            /usr/lib/gcc/arm-none-eabi/10.3.1/../../../arm-none-eabi/lib/thumb/v7e-m+dp/hard/libc.a(lib_a-malloc.o)
                                                  /usr/lib/gcc/arm-none-eabi/10.3.1/../../../arm-none-eabi/lib/thumb/v7e-m+dp/hard/libstdc++.a(eh_alloc.o)
                                                  /usr/lib/gcc/arm-none-eabi/10.3.1/../../../arm-none-eabi/lib/thumb/v7e-m+dp/hard/libstdc++.a(new_op.o)
memcpy                                            /usr/lib/gcc/arm-none-eabi/10.3.1/../../../arm-none-eabi/lib/thumb/v7e-m+dp/hard/libc.a(lib_a-memcpy.o)
                                                  /usr/lib/gcc/arm-none-eabi/10.3.1/thumb/v7e-m+dp/hard/libgcc.a(unwind-arm.o)
                                                  build/cmsis_os2.o
                                                  build/stream_buffer.o
                                                  build/queue.o
memset                                            /usr/lib/gcc/arm-none-eabi/10.3.1/../../../arm-none-eabi/lib/thumb/v7e-m+dp/hard/libc.a(lib_a-memset.o)
                                                  /usr/lib/gcc/arm-none-eabi/10.3.1/../../../arm-none-eabi/lib/thumb/v7e-m+dp/hard/libstdc++.a(eh_alloc.o)
                                                  build/main.o
                                                  build/tasks.o
                                                  build/stream_buffer.o
                                                  /usr/lib/gcc/arm-none-eabi/10.3.1/../../../arm-none-eabi/lib/thumb/v7e-m+dp/hard/crt0.o
operator delete(void*)                            /usr/lib/gcc/arm-none-eabi/10.3.1/../../../arm-none-eabi/lib/thumb/v7e-m+dp/hard/libstdc++.a(del_op.o)
                                                  /usr/lib/gcc/arm-none-eabi/10.3.1/../../../arm-none-eabi/lib/thumb/v7e-m+dp/hard/libstdc++.a(del_ops.o)
operator delete(void*, unsigned int)              /usr/lib/gcc/arm-none-eabi/10.3.1/../../../arm-none-eabi/lib/thumb/v7e-m+dp/hard/libstdc++.a(del_ops.o)
                                                  /usr/lib/gcc/arm-none-eabi/10.3.1/../../../arm-none-eabi/lib/thumb/v7e-m+dp/hard/libstdc++.a(class_type_info.o)
                                                  /usr/lib/gcc/arm-none-eabi/10.3.1/../../../arm-none-eabi/lib/thumb/v7e-m+dp/hard/libstdc++.a(bad_alloc.o)
                                                  /usr/lib/gcc/arm-none-eabi/10.3.1/../../../arm-none-eabi/lib/thumb/v7e-m+dp/hard/libstdc++.a(tinfo.o)
                                                  /usr/lib/gcc/arm-none-eabi/10.3.1/../../../arm-none-eabi/lib/thumb/v7e-m+dp/hard/libstdc++.a(si_class_type_info.o)
                                                  /usr/lib/gcc/arm-none-eabi/10.3.1/../../../arm-none-eabi/lib/thumb/v7e-m+dp/hard/libstdc++.a(eh_exception.o)
                                                  build/main.o
operator new(unsigned int)                        /usr/lib/gcc/arm-none-eabi/10.3.1/../../../arm-none-eabi/lib/thumb/v7e-m+dp/hard/libstdc++.a(new_op.o)
                                                  build/main.o
osDelay                                           build/cmsis_os2.o
                                                  build/main.o
osDelayUntil                                      build/cmsis_os2.o
osEventFlagsClear                                 build/cmsis_os2.o
osEventFlagsDelete                                build/cmsis_os2.o
osEventFlagsGet                                   build/cmsis_os2.o
osEventFlagsNew                                   build/cmsis_os2.o
osEventFlagsSet                                   build/cmsis_os2.o
osEventFlagsWait                                  build/cmsis_os2.o
osKernelGetInfo                                   build/cmsis_os2.o
osKernelGetState                                  build/cmsis_os2.o
osKernelGetSysTimerCount                          build/cmsis_os2.o
osKernelGetSysTimerFreq                           build/cmsis_os2.o
osKernelGetTickCount                              build/cmsis_os2.o
osKernelGetTickFreq                               build/cmsis_os2.o
osKernelInitialize                                build/cmsis_os2.o
                                                  build/main.o
osKernelLock                                      build/cmsis_os2.o
osKernelRestoreLock                               build/cmsis_os2.o
osKernelStart                                     build/cmsis_os2.o
                                                  build/main.o
osKernelUnlock                                    build/cmsis_os2.o
osMemoryPoolAlloc                                 build/cmsis_os2.o
osMemoryPoolDelete                                build/cmsis_os2.o
osMemoryPoolFree                                  build/cmsis_os2.o
osMemoryPoolGetBlockSize                          build/cmsis_os2.o
osMemoryPoolGetCapacity                           build/cmsis_os2.o
osMemoryPoolGetCount                              build/cmsis_os2.o
osMemoryPoolGetName                               build/cmsis_os2.o
osMemoryPoolGetSpace                              build/cmsis_os2.o
osMemoryPoolNew                                   build/cmsis_os2.o
osMessageQueueDelete                              build/cmsis_os2.o
osMessageQueueGet                                 build/cmsis_os2.o
osMessageQueueGetCapacity                         build/cmsis_os2.o
osMessageQueueGetCount                            build/cmsis_os2.o
osMessageQueueGetMsgSize                          build/cmsis_os2.o
osMessageQueueGetSpace                            build/cmsis_os2.o
osMessageQueueNew                                 build/cmsis_os2.o
osMessageQueuePut                                 build/cmsis_os2.o
osMessageQueueReset                               build/cmsis_os2.o
osMutexAcquire                                    build/cmsis_os2.o
osMutexDelete                                     build/cmsis_os2.o
osMutexGetOwner                                   build/cmsis_os2.o
osMutexNew                                        build/cmsis_os2.o
osMutexRelease                                    build/cmsis_os2.o
osSemaphoreAcquire                                build/cmsis_os2.o
osSemaphoreDelete                                 build/cmsis_os2.o
osSemaphoreGetCount                               build/cmsis_os2.o
osSemaphoreNew                                    build/cmsis_os2.o
osSemaphoreRelease                                build/cmsis_os2.o
osThreadEnumerate                                 build/cmsis_os2.o
osThreadExit                                      build/cmsis_os2.o
osThreadFlagsClear                                build/cmsis_os2.o
osThreadFlagsGet                                  build/cmsis_os2.o
osThreadFlagsSet                                  build/cmsis_os2.o
osThreadFlagsWait                                 build/cmsis_os2.o
osThreadGetCount                                  build/cmsis_os2.o
osThreadGetId                                     build/cmsis_os2.o
osThreadGetName                                   build/cmsis_os2.o
osThreadGetPriority                               build/cmsis_os2.o
osThreadGetStackSpace                             build/cmsis_os2.o
osThreadGetState                                  build/cmsis_os2.o
osThreadNew                                       build/cmsis_os2.o
                                                  build/main.o
osThreadResume                                    build/cmsis_os2.o
osThreadSetPriority                               build/cmsis_os2.o
osThreadSuspend                                   build/cmsis_os2.o
osThreadTerminate                                 build/cmsis_os2.o
osThreadYield                                     build/cmsis_os2.o
osTimerDelete                                     build/cmsis_os2.o
osTimerGetName                                    build/cmsis_os2.o
osTimerIsRunning                                  build/cmsis_os2.o
osTimerNew                                        build/cmsis_os2.o
osTimerStart                                      build/cmsis_os2.o
osTimerStop                                       build/cmsis_os2.o
pFlash                                            build/stm32h7xx_hal_flash.o
                                                  build/stm32h7xx_hal_flash_ex.o
pcQueueGetName                                    build/queue.o
pcTaskGetName                                     build/tasks.o
                                                  build/cmsis_os2.o
pcTimerGetName                                    build/timers.o
                                                  build/cmsis_os2.o
pvPortMalloc                                      build/heap_4.o
                                                  build/cmsis_os2.o
                                                  build/timers.o
                                                  build/tasks.o
                                                  build/stream_buffer.o
                                                  build/queue.o
                                                  build/event_groups.o
pvTaskIncrementMutexHeldCount                     build/tasks.o
                                                  build/queue.o
pvTimerGetTimerID                                 build/timers.o
                                                  build/cmsis_os2.o
pxCurrentTCB                                      build/tasks.o
                                                  build/port.o
pxPortInitialiseStack                             build/port.o
                                                  build/tasks.o
raise                                             /usr/lib/gcc/arm-none-eabi/10.3.1/../../../arm-none-eabi/lib/thumb/v7e-m+dp/hard/libc.a(lib_a-signal.o)
                                                  /usr/lib/gcc/arm-none-eabi/10.3.1/../../../arm-none-eabi/lib/thumb/v7e-m+dp/hard/libc.a(lib_a-abort.o)
restore_core_regs                                 /usr/lib/gcc/arm-none-eabi/10.3.1/thumb/v7e-m+dp/hard/libgcc.a(libunwind.o)
                                                  /usr/lib/gcc/arm-none-eabi/10.3.1/thumb/v7e-m+dp/hard/libgcc.a(unwind-arm.o)
signal                                            /usr/lib/gcc/arm-none-eabi/10.3.1/../../../arm-none-eabi/lib/thumb/v7e-m+dp/hard/libc.a(lib_a-signal.o)
software_init_hook                                /usr/lib/gcc/arm-none-eabi/10.3.1/../../../arm-none-eabi/lib/thumb/v7e-m+dp/hard/crt0.o
std::bad_alloc::what() const                      /usr/lib/gcc/arm-none-eabi/10.3.1/../../../arm-none-eabi/lib/thumb/v7e-m+dp/hard/libstdc++.a(bad_alloc.o)
std::bad_alloc::~bad_alloc()                      /usr/lib/gcc/arm-none-eabi/10.3.1/../../../arm-none-eabi/lib/thumb/v7e-m+dp/hard/libstdc++.a(bad_alloc.o)
std::bad_alloc::~bad_alloc()                      /usr/lib/gcc/arm-none-eabi/10.3.1/../../../arm-none-eabi/lib/thumb/v7e-m+dp/hard/libstdc++.a(bad_alloc.o)
std::bad_alloc::~bad_alloc()                      /usr/lib/gcc/arm-none-eabi/10.3.1/../../../arm-none-eabi/lib/thumb/v7e-m+dp/hard/libstdc++.a(bad_alloc.o)
                                                  /usr/lib/gcc/arm-none-eabi/10.3.1/../../../arm-none-eabi/lib/thumb/v7e-m+dp/hard/libstdc++.a(new_op.o)
std::bad_exception::what() const                  /usr/lib/gcc/arm-none-eabi/10.3.1/../../../arm-none-eabi/lib/thumb/v7e-m+dp/hard/libstdc++.a(eh_exception.o)
std::bad_exception::~bad_exception()              /usr/lib/gcc/arm-none-eabi/10.3.1/../../../arm-none-eabi/lib/thumb/v7e-m+dp/hard/libstdc++.a(eh_exception.o)
std::bad_exception::~bad_exception()              /usr/lib/gcc/arm-none-eabi/10.3.1/../../../arm-none-eabi/lib/thumb/v7e-m+dp/hard/libstdc++.a(eh_exception.o)
                                                  /usr/lib/gcc/arm-none-eabi/10.3.1/../../../arm-none-eabi/lib/thumb/v7e-m+dp/hard/libstdc++.a(eh_call.o)
std::bad_exception::~bad_exception()              /usr/lib/gcc/arm-none-eabi/10.3.1/../../../arm-none-eabi/lib/thumb/v7e-m+dp/hard/libstdc++.a(eh_exception.o)
std::exception::what() const                      /usr/lib/gcc/arm-none-eabi/10.3.1/../../../arm-none-eabi/lib/thumb/v7e-m+dp/hard/libstdc++.a(eh_exception.o)
std::exception::~exception()                      /usr/lib/gcc/arm-none-eabi/10.3.1/../../../arm-none-eabi/lib/thumb/v7e-m+dp/hard/libstdc++.a(eh_exception.o)
                                                  /usr/lib/gcc/arm-none-eabi/10.3.1/../../../arm-none-eabi/lib/thumb/v7e-m+dp/hard/libstdc++.a(bad_alloc.o)
std::exception::~exception()                      /usr/lib/gcc/arm-none-eabi/10.3.1/../../../arm-none-eabi/lib/thumb/v7e-m+dp/hard/libstdc++.a(eh_exception.o)
std::exception::~exception()                      /usr/lib/gcc/arm-none-eabi/10.3.1/../../../arm-none-eabi/lib/thumb/v7e-m+dp/hard/libstdc++.a(eh_exception.o)
std::get_new_handler()                            /usr/lib/gcc/arm-none-eabi/10.3.1/../../../arm-none-eabi/lib/thumb/v7e-m+dp/hard/libstdc++.a(new_handler.o)
                                                  /usr/lib/gcc/arm-none-eabi/10.3.1/../../../arm-none-eabi/lib/thumb/v7e-m+dp/hard/libstdc++.a(new_op.o)
std::get_terminate()                              /usr/lib/gcc/arm-none-eabi/10.3.1/../../../arm-none-eabi/lib/thumb/v7e-m+dp/hard/libstdc++.a(eh_terminate.o)
                                                  /usr/lib/gcc/arm-none-eabi/10.3.1/../../../arm-none-eabi/lib/thumb/v7e-m+dp/hard/libstdc++.a(eh_throw.o)
std::get_unexpected()                             /usr/lib/gcc/arm-none-eabi/10.3.1/../../../arm-none-eabi/lib/thumb/v7e-m+dp/hard/libstdc++.a(eh_terminate.o)
                                                  /usr/lib/gcc/arm-none-eabi/10.3.1/../../../arm-none-eabi/lib/thumb/v7e-m+dp/hard/libstdc++.a(eh_throw.o)
std::nothrow                                      /usr/lib/gcc/arm-none-eabi/10.3.1/../../../arm-none-eabi/lib/thumb/v7e-m+dp/hard/libstdc++.a(new_handler.o)
std::set_new_handler(void (*)())                  /usr/lib/gcc/arm-none-eabi/10.3.1/../../../arm-none-eabi/lib/thumb/v7e-m+dp/hard/libstdc++.a(new_handler.o)
std::set_terminate(void (*)())                    /usr/lib/gcc/arm-none-eabi/10.3.1/../../../arm-none-eabi/lib/thumb/v7e-m+dp/hard/libstdc++.a(eh_terminate.o)
std::set_unexpected(void (*)())                   /usr/lib/gcc/arm-none-eabi/10.3.1/../../../arm-none-eabi/lib/thumb/v7e-m+dp/hard/libstdc++.a(eh_terminate.o)
std::terminate()                                  /usr/lib/gcc/arm-none-eabi/10.3.1/../../../arm-none-eabi/lib/thumb/v7e-m+dp/hard/libstdc++.a(eh_terminate.o)
                                                  /usr/lib/gcc/arm-none-eabi/10.3.1/../../../arm-none-eabi/lib/thumb/v7e-m+dp/hard/libstdc++.a(eh_throw.o)
                                                  /usr/lib/gcc/arm-none-eabi/10.3.1/../../../arm-none-eabi/lib/thumb/v7e-m+dp/hard/libstdc++.a(eh_catch.o)
                                                  /usr/lib/gcc/arm-none-eabi/10.3.1/../../../arm-none-eabi/lib/thumb/v7e-m+dp/hard/libstdc++.a(eh_call.o)
                                                  /usr/lib/gcc/arm-none-eabi/10.3.1/../../../arm-none-eabi/lib/thumb/v7e-m+dp/hard/libstdc++.a(eh_alloc.o)
                                                  /usr/lib/gcc/arm-none-eabi/10.3.1/../../../arm-none-eabi/lib/thumb/v7e-m+dp/hard/libstdc++.a(pure.o)
                                                  /usr/lib/gcc/arm-none-eabi/10.3.1/../../../arm-none-eabi/lib/thumb/v7e-m+dp/hard/libstdc++.a(eh_unex_handler.o)
                                                  /usr/lib/gcc/arm-none-eabi/10.3.1/../../../arm-none-eabi/lib/thumb/v7e-m+dp/hard/libstdc++.a(eh_personality.o)
                                                  /usr/lib/gcc/arm-none-eabi/10.3.1/../../../arm-none-eabi/lib/thumb/v7e-m+dp/hard/libstdc++.a(eh_arm.o)
std::type_info::__do_catch(std::type_info const*, void**, unsigned int) const /usr/lib/gcc/arm-none-eabi/10.3.1/../../../arm-none-eabi/lib/thumb/v7e-m+dp/hard/libstdc++.a(tinfo.o)
std::type_info::__do_upcast(__cxxabiv1::__class_type_info const*, void**) const /usr/lib/gcc/arm-none-eabi/10.3.1/../../../arm-none-eabi/lib/thumb/v7e-m+dp/hard/libstdc++.a(tinfo.o)
std::type_info::__is_function_p() const           /usr/lib/gcc/arm-none-eabi/10.3.1/../../../arm-none-eabi/lib/thumb/v7e-m+dp/hard/libstdc++.a(tinfo.o)
                                                  /usr/lib/gcc/arm-none-eabi/10.3.1/../../../arm-none-eabi/lib/thumb/v7e-m+dp/hard/libstdc++.a(class_type_info.o)
                                                  /usr/lib/gcc/arm-none-eabi/10.3.1/../../../arm-none-eabi/lib/thumb/v7e-m+dp/hard/libstdc++.a(si_class_type_info.o)
std::type_info::__is_pointer_p() const            /usr/lib/gcc/arm-none-eabi/10.3.1/../../../arm-none-eabi/lib/thumb/v7e-m+dp/hard/libstdc++.a(tinfo.o)
                                                  /usr/lib/gcc/arm-none-eabi/10.3.1/../../../arm-none-eabi/lib/thumb/v7e-m+dp/hard/libstdc++.a(class_type_info.o)
                                                  /usr/lib/gcc/arm-none-eabi/10.3.1/../../../arm-none-eabi/lib/thumb/v7e-m+dp/hard/libstdc++.a(si_class_type_info.o)
std::type_info::operator==(std::type_info const&) const /usr/lib/gcc/arm-none-eabi/10.3.1/../../../arm-none-eabi/lib/thumb/v7e-m+dp/hard/libstdc++.a(tinfo.o)
                                                  /usr/lib/gcc/arm-none-eabi/10.3.1/../../../arm-none-eabi/lib/thumb/v7e-m+dp/hard/libstdc++.a(class_type_info.o)
                                                  /usr/lib/gcc/arm-none-eabi/10.3.1/../../../arm-none-eabi/lib/thumb/v7e-m+dp/hard/libstdc++.a(si_class_type_info.o)
std::type_info::~type_info()                      /usr/lib/gcc/arm-none-eabi/10.3.1/../../../arm-none-eabi/lib/thumb/v7e-m+dp/hard/libstdc++.a(tinfo.o)
std::type_info::~type_info()                      /usr/lib/gcc/arm-none-eabi/10.3.1/../../../arm-none-eabi/lib/thumb/v7e-m+dp/hard/libstdc++.a(tinfo.o)
std::type_info::~type_info()                      /usr/lib/gcc/arm-none-eabi/10.3.1/../../../arm-none-eabi/lib/thumb/v7e-m+dp/hard/libstdc++.a(tinfo.o)
                                                  /usr/lib/gcc/arm-none-eabi/10.3.1/../../../arm-none-eabi/lib/thumb/v7e-m+dp/hard/libstdc++.a(class_type_info.o)
std::uncaught_exception()                         /usr/lib/gcc/arm-none-eabi/10.3.1/../../../arm-none-eabi/lib/thumb/v7e-m+dp/hard/libstdc++.a(eh_catch.o)
std::uncaught_exceptions()                        /usr/lib/gcc/arm-none-eabi/10.3.1/../../../arm-none-eabi/lib/thumb/v7e-m+dp/hard/libstdc++.a(eh_catch.o)
std::unexpected()                                 /usr/lib/gcc/arm-none-eabi/10.3.1/../../../arm-none-eabi/lib/thumb/v7e-m+dp/hard/libstdc++.a(eh_terminate.o)
                                                  /usr/lib/gcc/arm-none-eabi/10.3.1/../../../arm-none-eabi/lib/thumb/v7e-m+dp/hard/libstdc++.a(eh_call.o)
                                                  /usr/lib/gcc/arm-none-eabi/10.3.1/../../../arm-none-eabi/lib/thumb/v7e-m+dp/hard/libstdc++.a(eh_personality.o)
strcmp                                            /usr/lib/gcc/arm-none-eabi/10.3.1/../../../arm-none-eabi/lib/thumb/v7e-m+dp/hard/libc.a(lib_a-strcmp.o)
                                                  /usr/lib/gcc/arm-none-eabi/10.3.1/../../../arm-none-eabi/lib/thumb/v7e-m+dp/hard/libstdc++.a(tinfo.o)
transaction clone for std::bad_exception::what() const /usr/lib/gcc/arm-none-eabi/10.3.1/../../../arm-none-eabi/lib/thumb/v7e-m+dp/hard/libstdc++.a(eh_exception.o)
transaction clone for std::bad_exception::~bad_exception() const /usr/lib/gcc/arm-none-eabi/10.3.1/../../../arm-none-eabi/lib/thumb/v7e-m+dp/hard/libstdc++.a(eh_exception.o)
transaction clone for std::exception::what() const /usr/lib/gcc/arm-none-eabi/10.3.1/../../../arm-none-eabi/lib/thumb/v7e-m+dp/hard/libstdc++.a(eh_exception.o)
transaction clone for std::exception::~exception() const /usr/lib/gcc/arm-none-eabi/10.3.1/../../../arm-none-eabi/lib/thumb/v7e-m+dp/hard/libstdc++.a(eh_exception.o)
typeinfo for __cxxabiv1::__class_type_info        /usr/lib/gcc/arm-none-eabi/10.3.1/../../../arm-none-eabi/lib/thumb/v7e-m+dp/hard/libstdc++.a(class_type_info.o)
                                                  /usr/lib/gcc/arm-none-eabi/10.3.1/../../../arm-none-eabi/lib/thumb/v7e-m+dp/hard/libstdc++.a(si_class_type_info.o)
typeinfo for __cxxabiv1::__forced_unwind          /usr/lib/gcc/arm-none-eabi/10.3.1/../../../arm-none-eabi/lib/thumb/v7e-m+dp/hard/libstdc++.a(eh_exception.o)
                                                  /usr/lib/gcc/arm-none-eabi/10.3.1/../../../arm-none-eabi/lib/thumb/v7e-m+dp/hard/libstdc++.a(eh_arm.o)
typeinfo for __cxxabiv1::__foreign_exception      /usr/lib/gcc/arm-none-eabi/10.3.1/../../../arm-none-eabi/lib/thumb/v7e-m+dp/hard/libstdc++.a(eh_exception.o)
                                                  /usr/lib/gcc/arm-none-eabi/10.3.1/../../../arm-none-eabi/lib/thumb/v7e-m+dp/hard/libstdc++.a(eh_arm.o)
typeinfo for __cxxabiv1::__si_class_type_info     /usr/lib/gcc/arm-none-eabi/10.3.1/../../../arm-none-eabi/lib/thumb/v7e-m+dp/hard/libstdc++.a(si_class_type_info.o)
typeinfo for std::bad_alloc                       /usr/lib/gcc/arm-none-eabi/10.3.1/../../../arm-none-eabi/lib/thumb/v7e-m+dp/hard/libstdc++.a(bad_alloc.o)
                                                  /usr/lib/gcc/arm-none-eabi/10.3.1/../../../arm-none-eabi/lib/thumb/v7e-m+dp/hard/libstdc++.a(new_op.o)
typeinfo for std::bad_exception                   /usr/lib/gcc/arm-none-eabi/10.3.1/../../../arm-none-eabi/lib/thumb/v7e-m+dp/hard/libstdc++.a(eh_exception.o)
                                                  /usr/lib/gcc/arm-none-eabi/10.3.1/../../../arm-none-eabi/lib/thumb/v7e-m+dp/hard/libstdc++.a(eh_call.o)
typeinfo for std::exception                       /usr/lib/gcc/arm-none-eabi/10.3.1/../../../arm-none-eabi/lib/thumb/v7e-m+dp/hard/libstdc++.a(eh_exception.o)
                                                  /usr/lib/gcc/arm-none-eabi/10.3.1/../../../arm-none-eabi/lib/thumb/v7e-m+dp/hard/libstdc++.a(bad_alloc.o)
typeinfo for std::type_info                       /usr/lib/gcc/arm-none-eabi/10.3.1/../../../arm-none-eabi/lib/thumb/v7e-m+dp/hard/libstdc++.a(tinfo.o)
                                                  /usr/lib/gcc/arm-none-eabi/10.3.1/../../../arm-none-eabi/lib/thumb/v7e-m+dp/hard/libstdc++.a(class_type_info.o)
typeinfo name for __cxxabiv1::__class_type_info   /usr/lib/gcc/arm-none-eabi/10.3.1/../../../arm-none-eabi/lib/thumb/v7e-m+dp/hard/libstdc++.a(class_type_info.o)
typeinfo name for __cxxabiv1::__forced_unwind     /usr/lib/gcc/arm-none-eabi/10.3.1/../../../arm-none-eabi/lib/thumb/v7e-m+dp/hard/libstdc++.a(eh_exception.o)
typeinfo name for __cxxabiv1::__foreign_exception /usr/lib/gcc/arm-none-eabi/10.3.1/../../../arm-none-eabi/lib/thumb/v7e-m+dp/hard/libstdc++.a(eh_exception.o)
typeinfo name for __cxxabiv1::__si_class_type_info /usr/lib/gcc/arm-none-eabi/10.3.1/../../../arm-none-eabi/lib/thumb/v7e-m+dp/hard/libstdc++.a(si_class_type_info.o)
typeinfo name for std::bad_alloc                  /usr/lib/gcc/arm-none-eabi/10.3.1/../../../arm-none-eabi/lib/thumb/v7e-m+dp/hard/libstdc++.a(bad_alloc.o)
typeinfo name for std::bad_exception              /usr/lib/gcc/arm-none-eabi/10.3.1/../../../arm-none-eabi/lib/thumb/v7e-m+dp/hard/libstdc++.a(eh_exception.o)
typeinfo name for std::exception                  /usr/lib/gcc/arm-none-eabi/10.3.1/../../../arm-none-eabi/lib/thumb/v7e-m+dp/hard/libstdc++.a(eh_exception.o)
typeinfo name for std::type_info                  /usr/lib/gcc/arm-none-eabi/10.3.1/../../../arm-none-eabi/lib/thumb/v7e-m+dp/hard/libstdc++.a(tinfo.o)
ucQueueGetQueueType                               build/queue.o
ucStreamBufferGetStreamBufferType                 build/stream_buffer.o
ulTaskNotifyTake                                  build/tasks.o
ulTaskNotifyValueClear                            build/tasks.o
uwTick                                            build/stm32h7xx_hal.o
uwTickFreq                                        build/stm32h7xx_hal.o
uwTickPrio                                        build/stm32h7xx_hal.o
                                                  build/stm32h7xx_hal_rcc.o
                                                  build/stm32h7xx_hal_timebase_tim.o
uxEventGroupGetNumber                             build/event_groups.o
uxListRemove                                      build/list.o
                                                  build/timers.o
                                                  build/tasks.o
uxQueueGetQueueNumber                             build/queue.o
uxQueueMessagesWaiting                            build/queue.o
                                                  build/cmsis_os2.o
uxQueueMessagesWaitingFromISR                     build/queue.o
                                                  build/cmsis_os2.o
uxQueueSpacesAvailable                            build/queue.o
                                                  build/cmsis_os2.o
uxStreamBufferGetStreamBufferNumber               build/stream_buffer.o
uxTaskGetNumberOfTasks                            build/tasks.o
                                                  build/cmsis_os2.o
uxTaskGetStackHighWaterMark                       build/tasks.o
                                                  build/cmsis_os2.o
uxTaskGetSystemState                              build/tasks.o
                                                  build/cmsis_os2.o
uxTaskGetTaskNumber                               build/tasks.o
uxTaskPriorityGet                                 build/tasks.o
                                                  build/cmsis_os2.o
uxTaskPriorityGetFromISR                          build/tasks.o
uxTaskResetEventItemValue                         build/tasks.o
                                                  build/event_groups.o
uxTimerGetReloadMode                              build/timers.o
uxTimerGetTimerNumber                             build/timers.o
vApplicationGetIdleTaskMemory                     build/cmsis_os2.o
                                                  build/tasks.o
vApplicationGetTimerTaskMemory                    build/cmsis_os2.o
                                                  build/timers.o
vEventGroupClearBitsCallback                      build/event_groups.o
vEventGroupDelete                                 build/event_groups.o
                                                  build/cmsis_os2.o
vEventGroupSetBitsCallback                        build/event_groups.o
vEventGroupSetNumber                              build/event_groups.o
vListInitialise                                   build/list.o
                                                  build/timers.o
                                                  build/tasks.o
                                                  build/queue.o
                                                  build/event_groups.o
vListInitialiseItem                               build/list.o
                                                  build/timers.o
                                                  build/tasks.o
vListInsert                                       build/list.o
                                                  build/timers.o
                                                  build/tasks.o
vListInsertEnd                                    build/list.o
                                                  build/tasks.o
vPortEndScheduler                                 build/port.o
                                                  build/tasks.o
vPortEnterCritical                                build/port.o
                                                  build/heap_4.o
                                                  build/cmsis_os2.o
                                                  build/timers.o
                                                  build/tasks.o
                                                  build/stream_buffer.o
                                                  build/queue.o
                                                  build/event_groups.o
vPortExitCritical                                 build/port.o
                                                  build/heap_4.o
                                                  build/cmsis_os2.o
                                                  build/timers.o
                                                  build/tasks.o
                                                  build/stream_buffer.o
                                                  build/queue.o
                                                  build/event_groups.o
vPortFree                                         build/heap_4.o
                                                  build/cmsis_os2.o
                                                  build/timers.o
                                                  build/tasks.o
                                                  build/stream_buffer.o
                                                  build/queue.o
                                                  build/event_groups.o
vPortGetHeapStats                                 build/heap_4.o
vPortInitialiseBlocks                             build/heap_4.o
vPortSetupTimerInterrupt                          build/port.o
vPortValidateInterruptPriority                    build/port.o
                                                  build/tasks.o
                                                  build/queue.o
vQueueAddToRegistry                               build/queue.o
                                                  build/cmsis_os2.o
                                                  build/timers.o
vQueueDelete                                      build/queue.o
                                                  build/cmsis_os2.o
vQueueSetQueueNumber                              build/queue.o
vQueueUnregisterQueue                             build/queue.o
                                                  build/cmsis_os2.o
vQueueWaitForMessageRestricted                    build/queue.o
                                                  build/timers.o
vStreamBufferDelete                               build/stream_buffer.o
vStreamBufferSetStreamBufferNumber                build/stream_buffer.o
vTaskDelay                                        build/tasks.o
                                                  build/cmsis_os2.o
vTaskDelayUntil                                   build/tasks.o
                                                  build/cmsis_os2.o
vTaskDelete                                       build/tasks.o
                                                  build/cmsis_os2.o
vTaskEndScheduler                                 build/tasks.o
vTaskGetInfo                                      build/tasks.o
vTaskInternalSetTimeOutState                      build/tasks.o
                                                  build/queue.o
vTaskMissedYield                                  build/tasks.o
                                                  build/queue.o
vTaskNotifyGiveFromISR                            build/tasks.o
vTaskPlaceOnEventList                             build/tasks.o
                                                  build/queue.o
vTaskPlaceOnEventListRestricted                   build/tasks.o
                                                  build/queue.o
vTaskPlaceOnUnorderedEventList                    build/tasks.o
                                                  build/event_groups.o
vTaskPriorityDisinheritAfterTimeout               build/tasks.o
                                                  build/queue.o
vTaskPrioritySet                                  build/tasks.o
                                                  build/cmsis_os2.o
vTaskRemoveFromUnorderedEventList                 build/tasks.o
                                                  build/event_groups.o
vTaskResume                                       build/tasks.o
                                                  build/cmsis_os2.o
vTaskSetTaskNumber                                build/tasks.o
vTaskSetTimeOutState                              build/tasks.o
                                                  build/stream_buffer.o
vTaskStartScheduler                               build/tasks.o
                                                  build/cmsis_os2.o
vTaskSuspend                                      build/tasks.o
                                                  build/cmsis_os2.o
vTaskSuspendAll                                   build/tasks.o
                                                  build/heap_4.o
                                                  build/cmsis_os2.o
                                                  build/timers.o
                                                  build/stream_buffer.o
                                                  build/queue.o
                                                  build/event_groups.o
vTaskSwitchContext                                build/tasks.o
                                                  build/port.o
vTimerSetReloadMode                               build/timers.o
vTimerSetTimerID                                  build/timers.o
vTimerSetTimerNumber                              build/timers.o
vtable for __cxxabiv1::__class_type_info          /usr/lib/gcc/arm-none-eabi/10.3.1/../../../arm-none-eabi/lib/thumb/v7e-m+dp/hard/libstdc++.a(class_type_info.o)
                                                  /usr/lib/gcc/arm-none-eabi/10.3.1/../../../arm-none-eabi/lib/thumb/v7e-m+dp/hard/libstdc++.a(tinfo.o)
                                                  /usr/lib/gcc/arm-none-eabi/10.3.1/../../../arm-none-eabi/lib/thumb/v7e-m+dp/hard/libstdc++.a(eh_exception.o)
vtable for __cxxabiv1::__forced_unwind            /usr/lib/gcc/arm-none-eabi/10.3.1/../../../arm-none-eabi/lib/thumb/v7e-m+dp/hard/libstdc++.a(eh_exception.o)
vtable for __cxxabiv1::__foreign_exception        /usr/lib/gcc/arm-none-eabi/10.3.1/../../../arm-none-eabi/lib/thumb/v7e-m+dp/hard/libstdc++.a(eh_exception.o)
vtable for __cxxabiv1::__si_class_type_info       /usr/lib/gcc/arm-none-eabi/10.3.1/../../../arm-none-eabi/lib/thumb/v7e-m+dp/hard/libstdc++.a(si_class_type_info.o)
                                                  /usr/lib/gcc/arm-none-eabi/10.3.1/../../../arm-none-eabi/lib/thumb/v7e-m+dp/hard/libstdc++.a(class_type_info.o)
                                                  /usr/lib/gcc/arm-none-eabi/10.3.1/../../../arm-none-eabi/lib/thumb/v7e-m+dp/hard/libstdc++.a(bad_alloc.o)
                                                  /usr/lib/gcc/arm-none-eabi/10.3.1/../../../arm-none-eabi/lib/thumb/v7e-m+dp/hard/libstdc++.a(eh_exception.o)
vtable for std::bad_alloc                         /usr/lib/gcc/arm-none-eabi/10.3.1/../../../arm-none-eabi/lib/thumb/v7e-m+dp/hard/libstdc++.a(bad_alloc.o)
                                                  /usr/lib/gcc/arm-none-eabi/10.3.1/../../../arm-none-eabi/lib/thumb/v7e-m+dp/hard/libstdc++.a(new_op.o)
vtable for std::bad_exception                     /usr/lib/gcc/arm-none-eabi/10.3.1/../../../arm-none-eabi/lib/thumb/v7e-m+dp/hard/libstdc++.a(eh_exception.o)
                                                  /usr/lib/gcc/arm-none-eabi/10.3.1/../../../arm-none-eabi/lib/thumb/v7e-m+dp/hard/libstdc++.a(eh_call.o)
vtable for std::exception                         /usr/lib/gcc/arm-none-eabi/10.3.1/../../../arm-none-eabi/lib/thumb/v7e-m+dp/hard/libstdc++.a(eh_exception.o)
vtable for std::type_info                         /usr/lib/gcc/arm-none-eabi/10.3.1/../../../arm-none-eabi/lib/thumb/v7e-m+dp/hard/libstdc++.a(tinfo.o)
xEventGroupClearBits                              build/event_groups.o
                                                  build/cmsis_os2.o
xEventGroupClearBitsFromISR                       build/event_groups.o
                                                  build/cmsis_os2.o
xEventGroupCreate                                 build/event_groups.o
                                                  build/cmsis_os2.o
xEventGroupCreateStatic                           build/event_groups.o
                                                  build/cmsis_os2.o
xEventGroupGetBitsFromISR                         build/event_groups.o
                                                  build/cmsis_os2.o
xEventGroupSetBits                                build/event_groups.o
                                                  build/cmsis_os2.o
xEventGroupSetBitsFromISR                         build/event_groups.o
                                                  build/cmsis_os2.o
xEventGroupSync                                   build/event_groups.o
xEventGroupWaitBits                               build/event_groups.o
                                                  build/cmsis_os2.o
xPortGetFreeHeapSize                              build/heap_4.o
xPortGetMinimumEverFreeHeapSize                   build/heap_4.o
xPortStartScheduler                               build/port.o
                                                  build/tasks.o
xPortSysTickHandler                               build/port.o
                                                  build/cmsis_os2.o
xQueueCreateCountingSemaphore                     build/queue.o
                                                  build/cmsis_os2.o
xQueueCreateCountingSemaphoreStatic               build/queue.o
                                                  build/cmsis_os2.o
xQueueCreateMutex                                 build/queue.o
                                                  build/cmsis_os2.o
xQueueCreateMutexStatic                           build/queue.o
                                                  build/cmsis_os2.o
xQueueGenericCreate                               build/queue.o
                                                  build/cmsis_os2.o
xQueueGenericCreateStatic                         build/queue.o
                                                  build/cmsis_os2.o
                                                  build/timers.o
xQueueGenericReset                                build/queue.o
                                                  build/cmsis_os2.o
xQueueGenericSend                                 build/queue.o
                                                  build/cmsis_os2.o
                                                  build/timers.o
xQueueGenericSendFromISR                          build/queue.o
                                                  build/cmsis_os2.o
                                                  build/timers.o
xQueueGetMutexHolder                              build/queue.o
                                                  build/cmsis_os2.o
xQueueGetMutexHolderFromISR                       build/queue.o
xQueueGiveFromISR                                 build/queue.o
                                                  build/cmsis_os2.o
xQueueGiveMutexRecursive                          build/queue.o
                                                  build/cmsis_os2.o
xQueueIsQueueEmptyFromISR                         build/queue.o
xQueueIsQueueFullFromISR                          build/queue.o
xQueuePeek                                        build/queue.o
xQueuePeekFromISR                                 build/queue.o
xQueueReceive                                     build/queue.o
                                                  build/cmsis_os2.o
                                                  build/timers.o
xQueueReceiveFromISR                              build/queue.o
                                                  build/cmsis_os2.o
xQueueRegistry                                    build/queue.o
xQueueSemaphoreTake                               build/queue.o
                                                  build/cmsis_os2.o
xQueueTakeMutexRecursive                          build/queue.o
                                                  build/cmsis_os2.o
xStreamBufferBytesAvailable                       build/stream_buffer.o
xStreamBufferGenericCreate                        build/stream_buffer.o
xStreamBufferGenericCreateStatic                  build/stream_buffer.o
xStreamBufferIsEmpty                              build/stream_buffer.o
xStreamBufferIsFull                               build/stream_buffer.o
xStreamBufferNextMessageLengthBytes               build/stream_buffer.o
xStreamBufferReceive                              build/stream_buffer.o
xStreamBufferReceiveCompletedFromISR              build/stream_buffer.o
xStreamBufferReceiveFromISR                       build/stream_buffer.o
xStreamBufferReset                                build/stream_buffer.o
xStreamBufferSend                                 build/stream_buffer.o
xStreamBufferSendCompletedFromISR                 build/stream_buffer.o
xStreamBufferSendFromISR                          build/stream_buffer.o
xStreamBufferSetTriggerLevel                      build/stream_buffer.o
xStreamBufferSpacesAvailable                      build/stream_buffer.o
xTaskCatchUpTicks                                 build/tasks.o
xTaskCheckForTimeOut                              build/tasks.o
                                                  build/stream_buffer.o
                                                  build/queue.o
xTaskCreate                                       build/tasks.o
                                                  build/cmsis_os2.o
xTaskCreateStatic                                 build/tasks.o
                                                  build/cmsis_os2.o
                                                  build/timers.o
xTaskGenericNotify                                build/tasks.o
                                                  build/cmsis_os2.o
                                                  build/stream_buffer.o
xTaskGenericNotifyFromISR                         build/tasks.o
                                                  build/cmsis_os2.o
                                                  build/stream_buffer.o
xTaskGetCurrentTaskHandle                         build/tasks.o
                                                  build/cmsis_os2.o
                                                  build/stream_buffer.o
                                                  build/queue.o
xTaskGetSchedulerState                            build/tasks.o
                                                  build/cmsis_os2.o
                                                  build/timers.o
                                                  build/queue.o
                                                  build/event_groups.o
xTaskGetTickCount                                 build/tasks.o
                                                  build/cmsis_os2.o
                                                  build/timers.o
xTaskGetTickCountFromISR                          build/tasks.o
                                                  build/cmsis_os2.o
xTaskIncrementTick                                build/tasks.o
                                                  build/port.o
xTaskNotifyStateClear                             build/tasks.o
                                                  build/stream_buffer.o
xTaskNotifyWait                                   build/tasks.o
                                                  build/cmsis_os2.o
                                                  build/stream_buffer.o
xTaskPriorityDisinherit                           build/tasks.o
                                                  build/queue.o
xTaskPriorityInherit                              build/tasks.o
                                                  build/queue.o
xTaskRemoveFromEventList                          build/tasks.o
                                                  build/queue.o
xTaskResumeAll                                    build/tasks.o
                                                  build/heap_4.o
                                                  build/cmsis_os2.o
                                                  build/timers.o
                                                  build/stream_buffer.o
                                                  build/queue.o
                                                  build/event_groups.o
xTaskResumeFromISR                                build/tasks.o
xTimerCreate                                      build/timers.o
                                                  build/cmsis_os2.o
xTimerCreateStatic                                build/timers.o
                                                  build/cmsis_os2.o
xTimerCreateTimerTask                             build/timers.o
                                                  build/tasks.o
xTimerGenericCommand                              build/timers.o
                                                  build/cmsis_os2.o
xTimerGetExpiryTime                               build/timers.o
xTimerGetPeriod                                   build/timers.o
xTimerGetTimerDaemonTaskHandle                    build/timers.o
xTimerIsTimerActive                               build/timers.o
                                                  build/cmsis_os2.o
xTimerPendFunctionCall                            build/timers.o
xTimerPendFunctionCallFromISR                     build/timers.o
                                                  build/event_groups.o
